(lp0
F1363683919.555
a(lp1
(lp2
F1363683921.753
a(lp3
(lp4
I1363683926
aI649015
aa(lp5
(lp6
(lp7
I0
aF-0.10291679203510284
aF-0.28370481729507446
aF0.17927439510822296
aF0.18682998418807983
aa(lp8
I-1
aF0.0
aS''
p9
a(lp10
F-0.07303773611783981
aF-0.3010038733482361
aF-0.07303773611783981
aF-0.3010038733482361
aF-0.059758104383945465
aF-0.29754406213760376
aF-0.06639792025089264
aF-0.30792349576950073
aF-0.06639792025089264
aF-0.3010038733482361
aF-0.06307800859212875
aF-0.30792349576950073
aF-0.06971783190965652
aF-0.30792349576950073
aa(lp11
F-0.129475936293602
aF-0.31138330698013306
aF-0.11287645250558853
aF-0.31484314799308777
aF-0.13279584050178528
aF-0.31484314799308777
aF-0.12283618003129959
aF-0.32522258162498474
aF-0.12283618003129959
aF-0.3183029592037201
aF-0.11619635671377182
aF-0.3217627704143524
aF-0.1261560171842575
aF-0.32522258162498474
aa(lp12
F-0.07967749238014221
aF-0.32522258162498474
aF-0.07303773611783981
aF-0.3217627704143524
aF0.5345032811164856
aF-0.41863757371902466
aa(lp13
F0.59375
aF0.10000000149011612
aF0.6187499761581421
aF0.09166666865348816
aF-0.0031250000465661287
aF-0.004166666883975267
aa(lp14
F-0.09959688037633896
aF-0.2698655426502228
aF-0.08631730824708939
aF-0.2698655426502228
aF-0.11287645250558853
aF-0.2698655426502228
aa(lp15
F-0.07967749238014221
aF-0.2248879373073578
aF-0.129475936293602
aF-0.23872721195220947
aF-0.10291679203510284
aF-0.24564684927463531
aF-0.10291679203510284
aF-0.2248879373073578
aF-0.09295706450939178
aF-0.24564684927463531
aF-0.11619635671377182
aF-0.24564684927463531
aF-0.11619635671377182
aF-0.2283477783203125
aF-0.09295706450939178
aF-0.2248879373073578
aaaa(lp16
aa(lp17
F0.038880854845047
aF0.0032264753244817257
aF0.20379671454429626
aF-1.862645149230957e-09
aF-0.2567524015903473
aF0.0827939510345459
aa(lp18
F0.08870396018028259
aF-0.05751843750476837
aF0.3677052855491638
aF0.20125478506088257
aF-0.11457992345094681
aF0.038035355508327484
aaI0
aaa(lp19
F1363683922.01
a(lp20
(lp21
I1363683926
aI649015
aa(lp22
(lp23
(lp24
I0
aF-0.10291679203510284
aF-0.28370481729507446
aF0.17927439510822296
aF0.18682998418807983
aa(lp25
I-1
aF0.0
ag9
a(lp26
F-0.07303773611783981
aF-0.3010038733482361
aF-0.07303773611783981
aF-0.3010038733482361
aF-0.059758104383945465
aF-0.29754406213760376
aF-0.06639792025089264
aF-0.30792349576950073
aF-0.06639792025089264
aF-0.3010038733482361
aF-0.06307800859212875
aF-0.30792349576950073
aF-0.06971783190965652
aF-0.30792349576950073
aa(lp27
F-0.129475936293602
aF-0.31138330698013306
aF-0.11287645250558853
aF-0.31484314799308777
aF-0.13279584050178528
aF-0.31484314799308777
aF-0.12283618003129959
aF-0.32522258162498474
aF-0.12283618003129959
aF-0.3183029592037201
aF-0.11619635671377182
aF-0.3217627704143524
aF-0.1261560171842575
aF-0.32522258162498474
aa(lp28
F-0.07967749238014221
aF-0.32522258162498474
aF-0.07303773611783981
aF-0.3217627704143524
aF0.5345032811164856
aF-0.41863757371902466
aa(lp29
F0.59375
aF0.10000000149011612
aF0.6187499761581421
aF0.09166666865348816
aF-0.0031250000465661287
aF-0.004166666883975267
aa(lp30
F-0.09959688037633896
aF-0.2698655426502228
aF-0.08631730824708939
aF-0.2698655426502228
aF-0.11287645250558853
aF-0.2698655426502228
aa(lp31
F-0.07967749238014221
aF-0.2248879373073578
aF-0.129475936293602
aF-0.23872721195220947
aF-0.10291679203510284
aF-0.24564684927463531
aF-0.10291679203510284
aF-0.2248879373073578
aF-0.09295706450939178
aF-0.24564684927463531
aF-0.11619635671377182
aF-0.24564684927463531
aF-0.11619635671377182
aF-0.2283477783203125
aF-0.09295706450939178
aF-0.2248879373073578
aaaa(lp32
aa(lp33
F0.038880854845047
aF0.0032264753244817257
aF0.20379671454429626
aF-1.862645149230957e-09
aF-0.2567524015903473
aF0.0827939510345459
aa(lp34
F0.08870396018028259
aF-0.05751843750476837
aF0.3677052855491638
aF0.20125478506088257
aF-0.11457992345094681
aF0.038035355508327484
aaI0
aaa(lp35
F1363683922.329
a(lp36
(lp37
I1363683927
aI149207
aa(lp38
(lp39
(lp40
I0
aF-0.09461704641580582
aF-0.2542963922023773
aF0.26891160011291504
aF0.28024500608444214
aa(lp41
I-1
aF0.0
ag9
a(lp42
F-0.059758104383945465
aF-0.2871646285057068
aF-0.059758104383945465
aF-0.2871646285057068
aF-0.03651886805891991
aF-0.2871646285057068
aF-0.04979844018816948
aF-0.3044636845588684
aF-0.04979844018816948
aF-0.2871646285057068
aF-0.039838775992393494
aF-0.29754406213760376
aF-0.053118348121643066
aF-0.30792349576950073
aa(lp43
F-0.13611574470996857
aF-0.29408425092697144
aF-0.12283618003129959
aF-0.2871646285057068
aF-0.15271523594856262
aF-0.2871646285057068
aF-0.13611574470996857
aF-0.30792349576950073
aF-0.13611574470996857
aF-0.2871646285057068
aF-0.1261560171842575
aF-0.30792349576950073
aF-0.14275550842285156
aF-0.31484314799308777
aa(lp44
F-0.059758104383945465
aF-0.31484314799308777
aF-0.04979844018816948
aF-0.31484314799308777
aF0.5345032811164856
aF-0.41863757371902466
aa(lp45
F0.6031249761581421
aF0.10833332687616348
aF0.628125011920929
aF0.10000000149011612
aF-0.0031250000465661287
aF-0.004166666883975267
aa(lp46
F-0.10623670369386673
aF-0.20066925883293152
aF-0.09295706450939178
aF-0.20066925883293152
aF-0.1195162683725357
aF-0.20066925883293152
aa(lp47
F-0.04979844018816948
aF-0.14877203106880188
aF-0.13279584050178528
aF-0.1660711020231247
aF-0.08963721990585327
aF-0.17991036176681519
aF-0.08963721990585327
aF-0.13147296011447906
aF-0.06971783190965652
aF-0.17991036176681519
aF-0.10955654084682465
aF-0.17991036176681519
aF-0.10955654084682465
aF-0.14877203106880188
aF-0.06971783190965652
aF-0.1349327713251114
aaaa(lp48
aa(lp49
F0.038880854845047
aF0.0032264753244817257
aF0.20379671454429626
aF-1.862645149230957e-09
aF-0.2567524015903473
aF0.0827939510345459
aa(lp50
F0.08868126571178436
aF-0.05750705301761627
aF0.36769700050354004
aF0.20121680200099945
aF-0.1146484911441803
aF0.038039691746234894
aaI0
aaa(lp51
F1363683922.668
a(lp52
(lp53
I1363683927
aI649378
aa(lp54
(lp55
(lp56
I0
aF-0.043158624321222305
aF-0.027678515762090683
aF0.3585487902164459
aF0.37365996837615967
aa(lp57
I-1
aF0.0
ag9
a(lp58
F0.019919387996196747
aF-0.06919629871845245
aF0.019919387996196747
aF-0.06919629871845245
aF0.04979844018816948
aF-0.06919629871845245
aF0.039838746190071106
aF-0.08649536222219467
aF0.039838746190071106
aF-0.06919629871845245
aF0.04315865412354469
aF-0.09341500699520111
aF0.03319896012544632
aF-0.08303555101156235
aa(lp59
F-0.09627696871757507
aF-0.08303555101156235
aF-0.08631730824708939
aF-0.0761159211397171
aF-0.11619635671377182
aF-0.09341500699520111
aF-0.09627696871757507
aF-0.10033462941646576
aF-0.09627696871757507
aF-0.0761159211397171
aF-0.08963721990585327
aF-0.10033462941646576
aF-0.10291679203510284
aF-0.10033462941646576
aa(lp60
F-0.003319908631965518
aF-0.10033462941646576
aF0.023239266127347946
aF-0.10725425183773041
aF0.5345032811164856
aF-0.41863757371902466
aa(lp61
F0.546875
aF0.36250001192092896
aF0.590624988079071
aF0.34166666865348816
aF-0.0031250000465661287
aF-0.004166666883975267
aa(lp62
F-0.013279571197926998
aF0.031138351187109947
aF0.006639785598963499
aF0.031138351187109947
aF-0.029879052191972733
aF0.031138351187109947
aa(lp63
F0.013279571197926998
aF0.10725425183773041
aF-0.09627696871757507
aF0.09687481820583344
aF-0.039838775992393494
aF0.08303557336330414
aF-0.039838775992393494
aF0.13147297501564026
aF-0.009959662333130836
aF0.08303557336330414
aF-0.06639792025089264
aF0.08303557336330414
aF-0.06639792025089264
aF0.1210934966802597
aF-0.009959662333130836
aF0.1210934966802597
aaaa(lp64
aa(lp65
F0.038880854845047
aF0.0032264753244817257
aF0.20379671454429626
aF-1.862645149230957e-09
aF-0.2567524015903473
aF0.0827939510345459
aa(lp66
F0.08875119686126709
aF-0.05754215270280838
aF0.36772242188453674
aF0.20133426785469055
aF-0.11443647742271423
aF0.03802625462412834
aaI0
aaa(lp67
F1363683923.006
a(lp68
(lp69
I1363683927
aI649378
aa(lp70
(lp71
(lp72
I0
aF-0.043158624321222305
aF-0.027678515762090683
aF0.3585487902164459
aF0.37365996837615967
aa(lp73
I-1
aF0.0
ag9
a(lp74
F0.019919387996196747
aF-0.06919629871845245
aF0.019919387996196747
aF-0.06919629871845245
aF0.04979844018816948
aF-0.06919629871845245
aF0.039838746190071106
aF-0.08649536222219467
aF0.039838746190071106
aF-0.06919629871845245
aF0.04315865412354469
aF-0.09341500699520111
aF0.03319896012544632
aF-0.08303555101156235
aa(lp75
F-0.09627696871757507
aF-0.08303555101156235
aF-0.08631730824708939
aF-0.0761159211397171
aF-0.11619635671377182
aF-0.09341500699520111
aF-0.09627696871757507
aF-0.10033462941646576
aF-0.09627696871757507
aF-0.0761159211397171
aF-0.08963721990585327
aF-0.10033462941646576
aF-0.10291679203510284
aF-0.10033462941646576
aa(lp76
F-0.003319908631965518
aF-0.10033462941646576
aF0.023239266127347946
aF-0.10725425183773041
aF0.5345032811164856
aF-0.41863757371902466
aa(lp77
F0.546875
aF0.36250001192092896
aF0.590624988079071
aF0.34166666865348816
aF-0.0031250000465661287
aF-0.004166666883975267
aa(lp78
F-0.013279571197926998
aF0.031138351187109947
aF0.006639785598963499
aF0.031138351187109947
aF-0.029879052191972733
aF0.031138351187109947
aa(lp79
F0.013279571197926998
aF0.10725425183773041
aF-0.09627696871757507
aF0.09687481820583344
aF-0.039838775992393494
aF0.08303557336330414
aF-0.039838775992393494
aF0.13147297501564026
aF-0.009959662333130836
aF0.08303557336330414
aF-0.06639792025089264
aF0.08303557336330414
aF-0.06639792025089264
aF0.1210934966802597
aF-0.009959662333130836
aF0.1210934966802597
aaaa(lp80
aa(lp81
F0.038880854845047
aF0.0032264753244817257
aF0.20379671454429626
aF-1.862645149230957e-09
aF-0.2567524015903473
aF0.0827939510345459
aa(lp82
F0.08875119686126709
aF-0.05754215270280838
aF0.36772242188453674
aF0.20133426785469055
aF-0.11443647742271423
aF0.03802625462412834
aaI0
aaa(lp83
F1363683923.345
a(lp84
(lp85
I1363683928
aI182914
aa(lp86
(lp87
(lp88
I0
aF0.021579312160611153
aF-0.029408421367406845
aF0.3685084581375122
aF0.38403943181037903
aa(lp89
I-1
aF0.0
ag9
a(lp90
F0.0829973965883255
aF-0.07957573980093002
aF0.0829973965883255
aF-0.07957573980093002
aF0.1195162683725357
aF-0.07265610992908478
aF0.09959688037633896
aF-0.08649536222219467
aF0.09959688037633896
aF-0.05881684273481369
aF0.11287645250558853
aF-0.08649536222219467
aF0.09295709431171417
aF-0.08649536222219467
aa(lp91
F-0.03319896012544632
aF-0.089955173432827
aF-0.01659948006272316
aF-0.08649536222219467
aF-0.043158624321222305
aF-0.08649536222219467
aF-0.029879052191972733
aF-0.10379444062709808
aF-0.029879052191972733
aF-0.07957573980093002
aF-0.023239297792315483
aF-0.10379444062709808
aF-0.03651886805891991
aF-0.10379444062709808
aa(lp92
F0.5345032811164856
aF-0.41863757371902466
aF0.5278634428977966
aF-0.41863757371902466
aF0.5345032811164856
aF-0.41863757371902466
aa(lp93
F-0.0031250000465661287
aF-0.004166666883975267
aF0.0
aF-0.004166666883975267
aF-0.0031250000465661287
aF-0.004166666883975267
aa(lp94
F0.04647853225469589
aF0.027678539976477623
aF0.06639792025089264
aF0.027678539976477623
aF0.029879052191972733
aF0.027678539976477623
aa(lp95
F0.07303770631551743
aF0.10725425183773041
aF-0.03651886805891991
aF0.09341500699520111
aF0.019919387996196747
aF0.08303557336330414
aF0.019919387996196747
aF0.12801311910152435
aF0.04315865412354469
aF0.08303557336330414
aF-0.003319908631965518
aF0.08303557336330414
aF-0.003319908631965518
aF0.11417386680841446
aF0.04315865412354469
aF0.11417386680841446
aaaa(lp96
aa(lp97
F0.038880854845047
aF0.0032264753244817257
aF0.20379671454429626
aF-1.862645149230957e-09
aF-0.2567524015903473
aF0.0827939510345459
aa(lp98
F0.08866588026285172
aF-0.057499341666698456
aF0.3676895201206207
aF0.2011938840150833
aF-0.1146898865699768
aF0.03804231062531471
aaI0
aaa(lp99
F1363683923.689
a(lp100
(lp101
I1363683928
aI182914
aa(lp102
(lp103
(lp104
I0
aF0.021579312160611153
aF-0.029408421367406845
aF0.3685084581375122
aF0.38403943181037903
aa(lp105
I-1
aF0.0
ag9
a(lp106
F0.0829973965883255
aF-0.07957573980093002
aF0.0829973965883255
aF-0.07957573980093002
aF0.1195162683725357
aF-0.07265610992908478
aF0.09959688037633896
aF-0.08649536222219467
aF0.09959688037633896
aF-0.05881684273481369
aF0.11287645250558853
aF-0.08649536222219467
aF0.09295709431171417
aF-0.08649536222219467
aa(lp107
F-0.03319896012544632
aF-0.089955173432827
aF-0.01659948006272316
aF-0.08649536222219467
aF-0.043158624321222305
aF-0.08649536222219467
aF-0.029879052191972733
aF-0.10379444062709808
aF-0.029879052191972733
aF-0.07957573980093002
aF-0.023239297792315483
aF-0.10379444062709808
aF-0.03651886805891991
aF-0.10379444062709808
aa(lp108
F0.5345032811164856
aF-0.41863757371902466
aF0.5278634428977966
aF-0.41863757371902466
aF0.5345032811164856
aF-0.41863757371902466
aa(lp109
F-0.0031250000465661287
aF-0.004166666883975267
aF0.0
aF-0.004166666883975267
aF-0.0031250000465661287
aF-0.004166666883975267
aa(lp110
F0.04647853225469589
aF0.027678539976477623
aF0.06639792025089264
aF0.027678539976477623
aF0.029879052191972733
aF0.027678539976477623
aa(lp111
F0.07303770631551743
aF0.10725425183773041
aF-0.03651886805891991
aF0.09341500699520111
aF0.019919387996196747
aF0.08303557336330414
aF0.019919387996196747
aF0.12801311910152435
aF0.04315865412354469
aF0.08303557336330414
aF-0.003319908631965518
aF0.08303557336330414
aF-0.003319908631965518
aF0.11417386680841446
aF0.04315865412354469
aF0.11417386680841446
aaaa(lp112
aa(lp113
F0.038880854845047
aF0.0032264753244817257
aF0.20379671454429626
aF-1.862645149230957e-09
aF-0.2567524015903473
aF0.0827939510345459
aa(lp114
F0.08866588026285172
aF-0.057499341666698456
aF0.3676895201206207
aF0.2011938840150833
aF-0.1146898865699768
aF0.03804231062531471
aaI0
aaa(lp115
F1363683926.266
a(lp116
(lp117
I1363683931
aI150658
aa(lp118
(lp119
(lp120
I0
aF-0.018259402364492416
aF-0.1297430545091629
aF0.12947595119476318
aF0.1349327713251114
aa(lp121
I-1
aF0.0
ag9
a(lp122
F0.5345032811164856
aF-0.41863757371902466
aF0.5345032811164856
aF-0.41863757371902466
aF0.5345032811164856
aF-0.41863757371902466
aF0.5345032811164856
aF-0.41863757371902466
aF0.5345032811164856
aF-0.41863757371902466
aF0.5345032811164856
aF-0.41863757371902466
aF0.5345032811164856
aF-0.41863757371902466
aa(lp123
F-0.039838775992393494
aF-0.14877203106880188
aF0.5345032811164856
aF-0.41863757371902466
aF0.5345032811164856
aF-0.41863757371902466
aF0.5345032811164856
aF-0.41863757371902466
aF0.5345032811164856
aF-0.41863757371902466
aF0.5345032811164856
aF-0.41863757371902466
aF0.5345032811164856
aF-0.41863757371902466
aa(lp124
F0.5345032811164856
aF-0.41863757371902466
aF0.5345032811164856
aF-0.41863757371902466
aF0.5345032811164856
aF-0.41863757371902466
aa(lp125
F-0.0031250000465661287
aF-0.004166666883975267
aF-0.0031250000465661287
aF-0.004166666883975267
aF-0.0031250000465661287
aF-0.004166666883975267
aa(lp126
F0.5345032811164856
aF-0.41863757371902466
aF0.5345032811164856
aF-0.41863757371902466
aF0.5345032811164856
aF-0.41863757371902466
aa(lp127
F0.5345032811164856
aF-0.41863757371902466
aF0.5345032811164856
aF-0.41863757371902466
aF0.5345032811164856
aF-0.41863757371902466
aF0.5345032811164856
aF-0.41863757371902466
aF0.5345032811164856
aF-0.41863757371902466
aF0.5345032811164856
aF-0.41863757371902466
aF0.5345032811164856
aF-0.41863757371902466
aF0.5345032811164856
aF-0.41863757371902466
aaaa(lp128
aa(lp129
F0.038762643933296204
aF0.003216666169464588
aF0.2038564682006836
aF-3.725290298461914e-09
aF-0.25828635692596436
aF0.0827939584851265
aa(lp130
F0.08853082358837128
aF-0.05750747397542
aF0.3677408695220947
aF0.20120395720005035
aF-0.11623906344175339
aF0.03773663565516472
aaI0
aaa(lp131
F1363683926.557
a(lp132
(lp133
I1363683931
aI150658
aa(lp134
(lp135
(lp136
I0
aF-0.018259402364492416
aF-0.1297430545091629
aF0.12947595119476318
aF0.1349327713251114
aa(lp137
I-1
aF0.0
ag9
a(lp138
F0.5345032811164856
aF-0.41863757371902466
aF0.5345032811164856
aF-0.41863757371902466
aF0.5345032811164856
aF-0.41863757371902466
aF0.5345032811164856
aF-0.41863757371902466
aF0.5345032811164856
aF-0.41863757371902466
aF0.5345032811164856
aF-0.41863757371902466
aF0.5345032811164856
aF-0.41863757371902466
aa(lp139
F-0.039838775992393494
aF-0.14877203106880188
aF0.5345032811164856
aF-0.41863757371902466
aF0.5345032811164856
aF-0.41863757371902466
aF0.5345032811164856
aF-0.41863757371902466
aF0.5345032811164856
aF-0.41863757371902466
aF0.5345032811164856
aF-0.41863757371902466
aF0.5345032811164856
aF-0.41863757371902466
aa(lp140
F0.5345032811164856
aF-0.41863757371902466
aF0.5345032811164856
aF-0.41863757371902466
aF0.5345032811164856
aF-0.41863757371902466
aa(lp141
F-0.0031250000465661287
aF-0.004166666883975267
aF-0.0031250000465661287
aF-0.004166666883975267
aF-0.0031250000465661287
aF-0.004166666883975267
aa(lp142
F0.5345032811164856
aF-0.41863757371902466
aF0.5345032811164856
aF-0.41863757371902466
aF0.5345032811164856
aF-0.41863757371902466
aa(lp143
F0.5345032811164856
aF-0.41863757371902466
aF0.5345032811164856
aF-0.41863757371902466
aF0.5345032811164856
aF-0.41863757371902466
aF0.5345032811164856
aF-0.41863757371902466
aF0.5345032811164856
aF-0.41863757371902466
aF0.5345032811164856
aF-0.41863757371902466
aF0.5345032811164856
aF-0.41863757371902466
aF0.5345032811164856
aF-0.41863757371902466
aaaa(lp144
aa(lp145
F0.038762643933296204
aF0.003216666169464588
aF0.2038564682006836
aF-3.725290298461914e-09
aF-0.25828635692596436
aF0.0827939584851265
aa(lp146
F0.08853082358837128
aF-0.05750747397542
aF0.3677408695220947
aF0.20120395720005035
aF-0.11623906344175339
aF0.03773663565516472
aaI0
aaa(lp147
F1363683927.264
a(lp148
(lp149
I1363683932
aI184359
aa(lp150
(lp151
(lp152
I0
aF-0.03153903782367706
aF-0.08130564540624619
aF0.12947595119476318
aF0.1349327713251114
aa(lp153
I-1
aF0.0
ag9
a(lp154
F-0.01659948006272316
aF-0.10033462941646576
aF-0.01659948006272316
aF-0.10033462941646576
aF-0.0
aF-0.10033462941646576
aF-0.006639817263931036
aF-0.10725425183773041
aF-0.006639817263931036
aF-0.10033462941646576
aF-0.0
aF-0.10725425183773041
aF-0.009959662333130836
aF-0.10725425183773041
aa(lp155
F-0.053118348121643066
aF-0.09341500699520111
aF-0.043158624321222305
aF-0.09341500699520111
aF-0.05643825605511665
aF-0.09341500699520111
aF-0.04979844018816948
aF-0.10379444062709808
aF-0.04979844018816948
aF-0.09341500699520111
aF-0.04647853225469589
aF-0.10379444062709808
aF-0.053118348121643066
aF-0.10379444062709808
aa(lp156
F-0.029879052191972733
aF-0.11417386680841446
aF-0.013279571197926998
aF-0.11417386680841446
aF0.5345032811164856
aF-0.41863757371902466
aa(lp157
F0.53125
aF0.36250001192092896
aF0.550000011920929
aF0.36250001192092896
aF-0.0031250000465661287
aF-0.004166666883975267
aa(lp158
F-0.026559142395853996
aF-0.07265610992908478
aF-0.019919387996196747
aF-0.07265610992908478
aF-0.03651886805891991
aF-0.07265610992908478
aa(lp159
F-0.009959662333130836
aF-0.04843740910291672
aF-0.039838775992393494
aF-0.04497759789228439
aF-0.023239297792315483
aF-0.04843740910291672
aF-0.023239297792315483
aF-0.038057949393987656
aF-0.01659948006272316
aF-0.04843740910291672
aF-0.029879052191972733
aF-0.04843740910291672
aF-0.029879052191972733
aF-0.038057949393987656
aF-0.01659948006272316
aF-0.038057949393987656
aaaa(lp160
aa(lp161
F0.038880854845047
aF0.0032264753244817257
aF0.20379671454429626
aF-1.862645149230957e-09
aF-0.2567524015903473
aF0.0827939510345459
aa(lp162
F0.08858370780944824
aF-0.0574401393532753
aF0.3676573932170868
aF0.20098745822906494
aF-0.11493980139493942
aF0.03805559128522873
aaI0
aaa(lp163
F1363683927.564
a(lp164
(lp165
I1363683932
aI184359
aa(lp166
(lp167
(lp168
I0
aF-0.03153903782367706
aF-0.08130564540624619
aF0.12947595119476318
aF0.1349327713251114
aa(lp169
I-1
aF0.0
ag9
a(lp170
F-0.01659948006272316
aF-0.10033462941646576
aF-0.01659948006272316
aF-0.10033462941646576
aF-0.0
aF-0.10033462941646576
aF-0.006639817263931036
aF-0.10725425183773041
aF-0.006639817263931036
aF-0.10033462941646576
aF-0.0
aF-0.10725425183773041
aF-0.009959662333130836
aF-0.10725425183773041
aa(lp171
F-0.053118348121643066
aF-0.09341500699520111
aF-0.043158624321222305
aF-0.09341500699520111
aF-0.05643825605511665
aF-0.09341500699520111
aF-0.04979844018816948
aF-0.10379444062709808
aF-0.04979844018816948
aF-0.09341500699520111
aF-0.04647853225469589
aF-0.10379444062709808
aF-0.053118348121643066
aF-0.10379444062709808
aa(lp172
F-0.029879052191972733
aF-0.11417386680841446
aF-0.013279571197926998
aF-0.11417386680841446
aF0.5345032811164856
aF-0.41863757371902466
aa(lp173
F0.53125
aF0.36250001192092896
aF0.550000011920929
aF0.36250001192092896
aF-0.0031250000465661287
aF-0.004166666883975267
aa(lp174
F-0.026559142395853996
aF-0.07265610992908478
aF-0.019919387996196747
aF-0.07265610992908478
aF-0.03651886805891991
aF-0.07265610992908478
aa(lp175
F-0.009959662333130836
aF-0.04843740910291672
aF-0.039838775992393494
aF-0.04497759789228439
aF-0.023239297792315483
aF-0.04843740910291672
aF-0.023239297792315483
aF-0.038057949393987656
aF-0.01659948006272316
aF-0.04843740910291672
aF-0.029879052191972733
aF-0.04843740910291672
aF-0.029879052191972733
aF-0.038057949393987656
aF-0.01659948006272316
aF-0.038057949393987656
aaaa(lp176
aa(lp177
F0.038880854845047
aF0.0032264753244817257
aF0.20379671454429626
aF-1.862645149230957e-09
aF-0.2567524015903473
aF0.0827939510345459
aa(lp178
F0.08858370780944824
aF-0.0574401393532753
aF0.3676573932170868
aF0.20098745822906494
aF-0.11493980139493942
aF0.03805559128522873
aaI0
aaa(lp179
F1363683928.27
a(lp180
(lp181
I1363683933
aI184726
aa(lp182
(lp183
(lp184
I0
aF0.013279571197926998
aF-0.1383925825357437
aF0.1593550145626068
aF0.1660711020231247
aa(lp185
I-1
aF0.0
ag9
a(lp186
F0.03319896012544632
aF-0.15569165349006653
aF0.03319896012544632
aF-0.15569165349006653
aF0.04315865412354469
aF-0.15915147960186005
aF0.039838746190071106
aF-0.1660711020231247
aF0.039838746190071106
aF-0.15915147960186005
aF0.04315865412354469
aF-0.1660711020231247
aF0.03651886805891991
aF-0.1660711020231247
aa(lp187
F-0.013279571197926998
aF-0.15915147960186005
aF0.003319908631965518
aF-0.15569165349006653
aF-0.013279571197926998
aF-0.15569165349006653
aF-0.003319908631965518
aF-0.1695309281349182
aF-0.003319908631965518
aF-0.15915147960186005
aF-0.0
aF-0.1695309281349182
aF-0.006639817263931036
aF-0.1695309281349182
aa(lp188
F0.019919387996196747
aF-0.17645055055618286
aF0.03651886805891991
aF-0.17991036176681519
aF0.5345032811164856
aF-0.41863757371902466
aa(lp189
F0.484375
aF0.2874999940395355
aF0.5093749761581421
aF0.28333333134651184
aF-0.0031250000465661287
aF-0.004166666883975267
aa(lp190
F0.009959693998098373
aF-0.10379444062709808
aF0.023239266127347946
aF-0.10379444062709808
aF-0.003319908631965518
aF-0.10379444062709808
aa(lp191
F0.03319896012544632
aF-0.09341500699520111
aF-0.003319908631965518
aF-0.09687481820583344
aF0.5345032811164856
aF-0.41863757371902466
aF0.5345032811164856
aF-0.41863757371902466
aF0.5345032811164856
aF-0.41863757371902466
aF0.5345032811164856
aF-0.41863757371902466
aF0.5345032811164856
aF-0.41863757371902466
aF0.5345032811164856
aF-0.41863757371902466
aaaa(lp192
aa(lp193
F0.038880854845047
aF0.0032264753244817257
aF0.20379671454429626
aF-1.862645149230957e-09
aF-0.2567524015903473
aF0.0827939510345459
aa(lp194
F0.08875776827335358
aF-0.057545460760593414
aF0.3677249550819397
aF0.2013455629348755
aF-0.11441635340452194
aF0.03802494332194328
aaI0
aaa(lp195
F1363683928.574
a(lp196
(lp197
I1363683933
aI184726
aa(lp198
(lp199
(lp200
I0
aF0.013279571197926998
aF-0.1383925825357437
aF0.1593550145626068
aF0.1660711020231247
aa(lp201
I-1
aF0.0
ag9
a(lp202
F0.03319896012544632
aF-0.15569165349006653
aF0.03319896012544632
aF-0.15569165349006653
aF0.04315865412354469
aF-0.15915147960186005
aF0.039838746190071106
aF-0.1660711020231247
aF0.039838746190071106
aF-0.15915147960186005
aF0.04315865412354469
aF-0.1660711020231247
aF0.03651886805891991
aF-0.1660711020231247
aa(lp203
F-0.013279571197926998
aF-0.15915147960186005
aF0.003319908631965518
aF-0.15569165349006653
aF-0.013279571197926998
aF-0.15569165349006653
aF-0.003319908631965518
aF-0.1695309281349182
aF-0.003319908631965518
aF-0.15915147960186005
aF-0.0
aF-0.1695309281349182
aF-0.006639817263931036
aF-0.1695309281349182
aa(lp204
F0.019919387996196747
aF-0.17645055055618286
aF0.03651886805891991
aF-0.17991036176681519
aF0.5345032811164856
aF-0.41863757371902466
aa(lp205
F0.484375
aF0.2874999940395355
aF0.5093749761581421
aF0.28333333134651184
aF-0.0031250000465661287
aF-0.004166666883975267
aa(lp206
F0.009959693998098373
aF-0.10379444062709808
aF0.023239266127347946
aF-0.10379444062709808
aF-0.003319908631965518
aF-0.10379444062709808
aa(lp207
F0.03319896012544632
aF-0.09341500699520111
aF-0.003319908631965518
aF-0.09687481820583344
aF0.5345032811164856
aF-0.41863757371902466
aF0.5345032811164856
aF-0.41863757371902466
aF0.5345032811164856
aF-0.41863757371902466
aF0.5345032811164856
aF-0.41863757371902466
aF0.5345032811164856
aF-0.41863757371902466
aF0.5345032811164856
aF-0.41863757371902466
aaaa(lp208
aa(lp209
F0.038880854845047
aF0.0032264753244817257
aF0.20379671454429626
aF-1.862645149230957e-09
aF-0.2567524015903473
aF0.0827939510345459
aa(lp210
F0.08875776827335358
aF-0.057545460760593414
aF0.3677249550819397
aF0.2013455629348755
aF-0.11441635340452194
aF0.03802494332194328
aaI0
aaa(lp211
F1363683928.895
a(lp212
(lp213
I1363683933
aI651564
aa(lp214
(lp215
(lp216
I0
aF-0.009959662333130836
aF-0.11417386680841446
aF0.19919376075267792
aF0.20758888125419617
aa(lp217
I-1
aF0.0
ag9
a(lp218
F0.019919387996196747
aF-0.1383925825357437
aF0.019919387996196747
aF-0.1383925825357437
aF0.03651886805891991
aF-0.1383925825357437
aF0.029879052191972733
aF-0.14531221985816956
aF0.029879052191972733
aF-0.1349327713251114
aF0.03319896012544632
aF-0.14531221985816956
aF0.026559174060821533
aF-0.14531221985816956
aa(lp219
F-0.043158624321222305
aF-0.1383925825357437
aF-0.029879052191972733
aF-0.14185239374637604
aF-0.04647853225469589
aF-0.14531221985816956
aF-0.03651886805891991
aF-0.1522318422794342
aF-0.03651886805891991
aF-0.1383925825357437
aF-0.03319896012544632
aF-0.1522318422794342
aF-0.039838775992393494
aF-0.1522318422794342
aa(lp220
F0.006639785598963499
aF-0.15569165349006653
aF0.019919387996196747
aF-0.15915147960186005
aF0.5345032811164856
aF-0.41863757371902466
aa(lp221
F0.512499988079071
aF0.3083333373069763
aF0.5375000238418579
aF0.30000001192092896
aF-0.0031250000465661287
aF-0.004166666883975267
aa(lp222
F-0.006639817263931036
aF-0.09341500699520111
aF0.009959693998098373
aF-0.09341500699520111
aF-0.023239297792315483
aF-0.09341500699520111
aa(lp223
F0.019919387996196747
aF-0.04843740910291672
aF-0.03651886805891991
aF-0.05189722031354904
aF-0.006639817263931036
aF-0.062276653945446014
aF-0.006639817263931036
aF-0.03459813818335533
aF0.003319908631965518
aF-0.062276653945446014
aF-0.019919387996196747
aF-0.062276653945446014
aF-0.019919387996196747
aF-0.04497759789228439
aF0.003319908631965518
aF-0.04151778668165207
aaaa(lp224
aa(lp225
F0.038762643933296204
aF0.003216666169464588
aF0.2038564682006836
aF-3.725290298461914e-09
aF-0.25828635692596436
aF0.0827939584851265
aa(lp226
F0.08850439637899399
aF-0.057494208216667175
aF0.36774638295173645
aF0.20113696157932281
aF-0.11636005342006683
aF0.037744391709566116
aaI0
aaa(lp227
F1363683929.226
a(lp228
(lp229
I1363683934
aI151747
aa(lp230
(lp231
(lp232
I0
aF0.004979831166565418
aF-0.09168510138988495
aF0.2489922046661377
aF0.2594861090183258
aa(lp233
I-1
aF0.0
ag9
a(lp234
F0.039838746190071106
aF-0.11417386680841446
aF0.039838746190071106
aF-0.11417386680841446
aF0.06639792025089264
aF-0.1210935190320015
aF0.053118348121643066
aF-0.12801314890384674
aF0.053118348121643066
aF-0.11417386680841446
aF0.05975813418626785
aF-0.12801314890384674
aF0.04647853225469589
aF-0.13147296011447906
aa(lp235
F-0.03319896012544632
aF-0.12801314890384674
aF-0.01659948006272316
aF-0.12801314890384674
aF-0.04647853225469589
aF-0.1349327713251114
aF-0.03319896012544632
aF-0.14185239374637604
aF-0.03319896012544632
aF-0.12455333024263382
aF-0.023239297792315483
aF-0.14185239374637604
aF-0.039838775992393494
aF-0.14185239374637604
aa(lp236
F0.029879052191972733
aF-0.14185239374637604
aF0.04979844018816948
aF-0.14531221985816956
aF0.5345032811164856
aF-0.41863757371902466
aa(lp237
F0.503125011920929
aF0.32083332538604736
aF0.53125
aF0.3125
aF-0.0031250000465661287
aF-0.004166666883975267
aa(lp238
F-0.003319908631965518
aF-0.055357031524181366
aF0.003319908631965518
aF-0.055357031524181366
aF-0.01659948006272316
aF-0.055357031524181366
aa(lp239
F0.04315865412354469
aF-0.003459811443462968
aF-0.03319896012544632
aF-0.010379434563219547
aF0.009959693998098373
aF-0.01729908213019371
aF0.009959693998098373
aF0.01729905605316162
aF0.026559174060821533
aF-0.01729908213019371
aF-0.009959662333130836
aF-0.01729908213019371
aF-0.009959662333130836
aF0.006919622886925936
aF0.026559174060821533
aF0.006919622886925936
aaaa(lp240
aa(lp241
F0.038880854845047
aF0.0032264753244817257
aF0.20379671454429626
aF-1.862645149230957e-09
aF-0.2567524015903473
aF0.0827939510345459
aa(lp242
F0.08865182101726532
aF-0.05749230831861496
aF0.3676868975162506
aF0.20116707682609558
aF-0.11473851650953293
aF0.038045354187488556
aaI0
aaa(lp243
F1363683929.567
a(lp244
(lp245
I1363683934
aI151747
aa(lp246
(lp247
(lp248
I0
aF0.004979831166565418
aF-0.09168510138988495
aF0.2489922046661377
aF0.2594861090183258
aa(lp249
I-1
aF0.0
ag9
a(lp250
F0.039838746190071106
aF-0.11417386680841446
aF0.039838746190071106
aF-0.11417386680841446
aF0.06639792025089264
aF-0.1210935190320015
aF0.053118348121643066
aF-0.12801314890384674
aF0.053118348121643066
aF-0.11417386680841446
aF0.05975813418626785
aF-0.12801314890384674
aF0.04647853225469589
aF-0.13147296011447906
aa(lp251
F-0.03319896012544632
aF-0.12801314890384674
aF-0.01659948006272316
aF-0.12801314890384674
aF-0.04647853225469589
aF-0.1349327713251114
aF-0.03319896012544632
aF-0.14185239374637604
aF-0.03319896012544632
aF-0.12455333024263382
aF-0.023239297792315483
aF-0.14185239374637604
aF-0.039838775992393494
aF-0.14185239374637604
aa(lp252
F0.029879052191972733
aF-0.14185239374637604
aF0.04979844018816948
aF-0.14531221985816956
aF0.5345032811164856
aF-0.41863757371902466
aa(lp253
F0.503125011920929
aF0.32083332538604736
aF0.53125
aF0.3125
aF-0.0031250000465661287
aF-0.004166666883975267
aa(lp254
F-0.003319908631965518
aF-0.055357031524181366
aF0.003319908631965518
aF-0.055357031524181366
aF-0.01659948006272316
aF-0.055357031524181366
aa(lp255
F0.04315865412354469
aF-0.003459811443462968
aF-0.03319896012544632
aF-0.010379434563219547
aF0.009959693998098373
aF-0.01729908213019371
aF0.009959693998098373
aF0.01729905605316162
aF0.026559174060821533
aF-0.01729908213019371
aF-0.009959662333130836
aF-0.01729908213019371
aF-0.009959662333130836
aF0.006919622886925936
aF0.026559174060821533
aF0.006919622886925936
aaaa(lp256
aa(lp257
F0.038880854845047
aF0.0032264753244817257
aF0.20379671454429626
aF-1.862645149230957e-09
aF-0.2567524015903473
aF0.0827939510345459
aa(lp258
F0.08865182101726532
aF-0.05749230831861496
aF0.3676868975162506
aF0.20116707682609558
aF-0.11473851650953293
aF0.038045354187488556
aaI0
aaa(lp259
F1363683929.905
a(lp260
(lp261
I1363683934
aI651931
aa(lp262
(lp263
(lp264
I0
aF0.01659948006272316
aF-0.11763370782136917
aF0.2987906336784363
aF0.31138330698013306
aa(lp265
I-1
aF0.0
ag9
a(lp266
F0.06307800859212875
aF-0.1522318422794342
aF0.06307800859212875
aF-0.1522318422794342
aF0.09627696871757507
aF-0.14877203106880188
aF0.07967749238014221
aF-0.16261129081249237
aF0.07967749238014221
aF-0.14185239374637604
aF0.08963718265295029
aF-0.1660711020231247
aF0.07303770631551743
aF-0.16261129081249237
aa(lp267
F-0.029879052191972733
aF-0.15915147960186005
aF-0.013279571197926998
aF-0.16261129081249237
aF-0.043158624321222305
aF-0.14877203106880188
aF-0.026559142395853996
aF-0.17299073934555054
aF-0.026559142395853996
aF-0.14877203106880188
aF-0.01659948006272316
aF-0.17299073934555054
aF-0.03319896012544632
aF-0.17299073934555054
aa(lp268
F0.04315865412354469
aF-0.17299073934555054
aF0.06971783190965652
aF-0.17645055055618286
aF0.5345032811164856
aF-0.41863757371902466
aa(lp269
F0.484375
aF0.2874999940395355
aF0.528124988079071
aF0.2708333432674408
aF-0.0031250000465661287
aF-0.004166666883975267
aa(lp270
F0.03651886805891991
aF-0.06573648750782013
aF0.04979844018816948
aF-0.06573648750782013
aF0.023239266127347946
aF-0.06573648750782013
aa(lp271
F0.056438226252794266
aF-0.010379434563219547
aF-0.03319896012544632
aF-0.020758893340826035
aF0.01659948006272316
aF-0.027678515762090683
aF0.01659948006272316
aF0.006919622886925936
aF0.039838746190071106
aF-0.027678515762090683
aF-0.009959662333130836
aF-0.027678515762090683
aF-0.009959662333130836
aF-0.003459811443462968
aF0.039838746190071106
aF-0.003459811443462968
aaaa(lp272
aa(lp273
F0.03888575732707977
aF0.0031668287701904774
aF0.20379671454429626
aF-1.862645149230957e-09
aF-0.2567524015903473
aF0.08125997334718704
aa(lp274
F0.08869703114032745
aF-0.05757175385951996
aF0.3676886260509491
aF0.20101690292358398
aF-0.114311583340168
aF0.03657371178269386
aaI0
aaa(lp275
F1363683930.25
a(lp276
(lp277
I1363683935
aI152109
aa(lp278
(lp279
(lp280
I0
aF0.026559174060821533
aF-0.11417386680841446
aF0.3585487902164459
aF0.37365996837615967
aa(lp281
I-1
aF0.0
ag9
a(lp282
F0.0829973965883255
aF-0.15915147960186005
aF0.0829973965883255
aF-0.15915147960186005
aF0.1195162683725357
aF-0.15915147960186005
aF0.09959688037633896
aF-0.17299073934555054
aF0.09959688037633896
aF-0.14531221985816956
aF0.11287645250558853
aF-0.17645055055618286
aF0.09295709431171417
aF-0.17299073934555054
aa(lp283
F-0.026559142395853996
aF-0.1695309281349182
aF-0.009959662333130836
aF-0.17299073934555054
aF-0.04647853225469589
aF-0.17645055055618286
aF-0.026559142395853996
aF-0.1833701729774475
aF-0.026559142395853996
aF-0.15915147960186005
aF-0.01659948006272316
aF-0.1833701729774475
aF-0.03319896012544632
aF-0.1833701729774475
aa(lp284
F0.5345032811164856
aF-0.41863757371902466
aF0.5311833620071411
aF-0.41863757371902466
aF0.5345032811164856
aF-0.41863757371902466
aa(lp285
F-0.0031250000465661287
aF-0.004166666883975267
aF0.0
aF-0.004166666883975267
aF-0.0031250000465661287
aF-0.004166666883975267
aa(lp286
F0.053118348121643066
aF-0.055357031524181366
aF0.07303770631551743
aF-0.055357031524181366
aF0.03651886805891991
aF-0.055357031524181366
aa(lp287
F0.07303770631551743
aF0.01729905605316162
aF-0.019919387996196747
aF0.0
aF0.026559174060821533
aF-0.006919622886925936
aF0.026559174060821533
aF0.03459816426038742
aF0.053118348121643066
aF-0.006919622886925936
aF0.003319908631965518
aF-0.006919622886925936
aF0.003319908631965518
aF0.02421868033707142
aF0.053118348121643066
aF0.02421868033707142
aaaa(lp288
aa(lp289
F0.038880854845047
aF0.0032264753244817257
aF0.20379671454429626
aF-1.862645149230957e-09
aF-0.2567524015903473
aF0.0827939510345459
aa(lp290
F0.08873026072978973
aF-0.057531651109457016
aF0.3677152395248413
aF0.2012990266084671
aF-0.1145002618432045
aF0.0380302332341671
aaI0
aaa(lp291
F1363683930.586
a(lp292
(lp293
I1363683935
aI152109
aa(lp294
(lp295
(lp296
I0
aF0.026559174060821533
aF-0.11417386680841446
aF0.3585487902164459
aF0.37365996837615967
aa(lp297
I-1
aF0.0
ag9
a(lp298
F0.0829973965883255
aF-0.15915147960186005
aF0.0829973965883255
aF-0.15915147960186005
aF0.1195162683725357
aF-0.15915147960186005
aF0.09959688037633896
aF-0.17299073934555054
aF0.09959688037633896
aF-0.14531221985816956
aF0.11287645250558853
aF-0.17645055055618286
aF0.09295709431171417
aF-0.17299073934555054
aa(lp299
F-0.026559142395853996
aF-0.1695309281349182
aF-0.009959662333130836
aF-0.17299073934555054
aF-0.04647853225469589
aF-0.17645055055618286
aF-0.026559142395853996
aF-0.1833701729774475
aF-0.026559142395853996
aF-0.15915147960186005
aF-0.01659948006272316
aF-0.1833701729774475
aF-0.03319896012544632
aF-0.1833701729774475
aa(lp300
F0.5345032811164856
aF-0.41863757371902466
aF0.5311833620071411
aF-0.41863757371902466
aF0.5345032811164856
aF-0.41863757371902466
aa(lp301
F-0.0031250000465661287
aF-0.004166666883975267
aF0.0
aF-0.004166666883975267
aF-0.0031250000465661287
aF-0.004166666883975267
aa(lp302
F0.053118348121643066
aF-0.055357031524181366
aF0.07303770631551743
aF-0.055357031524181366
aF0.03651886805891991
aF-0.055357031524181366
aa(lp303
F0.07303770631551743
aF0.01729905605316162
aF-0.019919387996196747
aF0.0
aF0.026559174060821533
aF-0.006919622886925936
aF0.026559174060821533
aF0.03459816426038742
aF0.053118348121643066
aF-0.006919622886925936
aF0.003319908631965518
aF-0.006919622886925936
aF0.003319908631965518
aF0.02421868033707142
aF0.053118348121643066
aF0.02421868033707142
aaaa(lp304
aa(lp305
F0.038880854845047
aF0.0032264753244817257
aF0.20379671454429626
aF-1.862645149230957e-09
aF-0.2567524015903473
aF0.0827939510345459
aa(lp306
F0.08873026072978973
aF-0.057531651109457016
aF0.3677152395248413
aF0.2012990266084671
aF-0.1145002618432045
aF0.0380302332341671
aaI0
aaa(lp307
F1363683930.919
a(lp308
(lp309
I1363683935
aI652309
aa(lp310
(lp311
(lp312
I0
aF-0.003319908631965518
aF-0.12801314890384674
aF0.4183069169521332
aF0.4359366297721863
aa(lp313
I-1
aF0.0
ag9
a(lp314
F0.05975813418626785
aF-0.17991036176681519
aF0.05975813418626785
aF-0.17991036176681519
aF0.10623666644096375
aF-0.17991036176681519
aF0.08631730824708939
aF-0.19374960660934448
aF0.08631730824708939
aF-0.1660711020231247
aF0.09959688037633896
aF-0.19374960660934448
aF0.07303770631551743
aF-0.19374960660934448
aa(lp315
F-0.06971783190965652
aF-0.18682998418807983
aF-0.059758104383945465
aF-0.17991036176681519
aF-0.09295706450939178
aF-0.20066925883293152
aF-0.07303773611783981
aF-0.20758888125419617
aF-0.07303773611783981
aF-0.17991036176681519
aF-0.06639792025089264
aF-0.20758888125419617
aF-0.07967749238014221
aF-0.20758888125419617
aa(lp316
F0.039838746190071106
aF-0.20758888125419617
aF0.06971783190965652
aF-0.21450850367546082
aF0.5345032811164856
aF-0.41863757371902466
aa(lp317
F0.53125
aF0.23333333432674408
aF0.5625
aF0.21666666865348816
aF-0.0031250000465661287
aF-0.004166666883975267
aa(lp318
F0.023239266127347946
aF-0.05189722031354904
aF0.056438226252794266
aF-0.05189722031354904
aF-0.009959662333130836
aF-0.05189722031354904
aa(lp319
F0.056438226252794266
aF0.027678539976477623
aF-0.059758104383945465
aF0.013839245773851871
aF-0.0
aF0.006919622886925936
aF-0.0
aF0.055357031524181366
aF0.026559174060821533
aF0.006919622886925936
aF-0.026559142395853996
aF0.006919622886925936
aF-0.026559142395853996
aF0.04151778668165207
aF0.026559174060821533
aF0.04151778668165207
aaaa(lp320
aa(lp321
F0.038880854845047
aF0.0032264753244817257
aF0.20379671454429626
aF-1.862645149230957e-09
aF-0.2567524015903473
aF0.0827939510345459
aa(lp322
F0.08875589072704315
aF-0.0575445219874382
aF0.3677244782447815
aF0.20134218037128448
aF-0.11442240327596664
aF0.03802529722452164
aaI0
aaa(lp323
F1363683931.251
a(lp324
(lp325
I1363683936
aI152475
aa(lp326
(lp327
(lp328
I0
aF-0.01659948006272316
aF-0.12455333024263382
aF0.3784681260585785
aF0.394418865442276
aa(lp329
I-1
aF0.0
ag9
a(lp330
F0.03651886805891991
aF-0.17299073934555054
aF0.03651886805891991
aF-0.17299073934555054
aF0.06971783190965652
aF-0.17299073934555054
aF0.053118348121643066
aF-0.18682998418807983
aF0.053118348121643066
aF-0.16261129081249237
aF0.06639792025089264
aF-0.17991036176681519
aF0.04979844018816948
aF-0.18682998418807983
aa(lp331
F-0.07635758072137833
aF-0.17645055055618286
aF-0.05643825605511665
aF-0.17991036176681519
aF-0.09959688037633896
aF-0.18682998418807983
aF-0.07635758072137833
aF-0.1972094476222992
aF-0.07635758072137833
aF-0.17299073934555054
aF-0.06639792025089264
aF-0.1972094476222992
aF-0.08963721990585327
aF-0.1972094476222992
aa(lp332
F0.006639785598963499
aF-0.1972094476222992
aF0.04647853225469589
aF-0.20412907004356384
aF0.5345032811164856
aF-0.41863757371902466
aa(lp333
F0.5406249761581421
aF0.25
aF0.5687500238418579
aF0.24166665971279144
aF-0.0031250000465661287
aF-0.004166666883975267
aa(lp334
F0.006639785598963499
aF-0.055357031524181366
aF0.03319896012544632
aF-0.055357031524181366
aF-0.023239297792315483
aF-0.055357031524181366
aa(lp335
F0.03319896012544632
aF0.010379434563219547
aF-0.07635758072137833
aF0.0
aF-0.019919387996196747
aF-0.010379434563219547
aF-0.019919387996196747
aF0.03459816426038742
aF0.006639785598963499
aF-0.010379434563219547
aF-0.04979844018816948
aF-0.010379434563219547
aF-0.04979844018816948
aF0.01729905605316162
aF0.006639785598963499
aF0.01729905605316162
aaaa(lp336
aa(lp337
F0.038880854845047
aF0.0032264753244817257
aF0.20379671454429626
aF-1.862645149230957e-09
aF-0.2567524015903473
aF0.0827939510345459
aa(lp338
F0.08863634616136551
aF-0.05748450756072998
aF0.3676814138889313
aF0.2011408805847168
aF-0.11478569358587265
aF0.03804829716682434
aaI0
aaa(lp339
F1363683931.584
a(lp340
(lp341
I1363683936
aI152475
aa(lp342
(lp343
(lp344
I0
aF-0.01659948006272316
aF-0.12455333024263382
aF0.3784681260585785
aF0.394418865442276
aa(lp345
I-1
aF0.0
ag9
a(lp346
F0.03651886805891991
aF-0.17299073934555054
aF0.03651886805891991
aF-0.17299073934555054
aF0.06971783190965652
aF-0.17299073934555054
aF0.053118348121643066
aF-0.18682998418807983
aF0.053118348121643066
aF-0.16261129081249237
aF0.06639792025089264
aF-0.17991036176681519
aF0.04979844018816948
aF-0.18682998418807983
aa(lp347
F-0.07635758072137833
aF-0.17645055055618286
aF-0.05643825605511665
aF-0.17991036176681519
aF-0.09959688037633896
aF-0.18682998418807983
aF-0.07635758072137833
aF-0.1972094476222992
aF-0.07635758072137833
aF-0.17299073934555054
aF-0.06639792025089264
aF-0.1972094476222992
aF-0.08963721990585327
aF-0.1972094476222992
aa(lp348
F0.006639785598963499
aF-0.1972094476222992
aF0.04647853225469589
aF-0.20412907004356384
aF0.5345032811164856
aF-0.41863757371902466
aa(lp349
F0.5406249761581421
aF0.25
aF0.5687500238418579
aF0.24166665971279144
aF-0.0031250000465661287
aF-0.004166666883975267
aa(lp350
F0.006639785598963499
aF-0.055357031524181366
aF0.03319896012544632
aF-0.055357031524181366
aF-0.023239297792315483
aF-0.055357031524181366
aa(lp351
F0.03319896012544632
aF0.010379434563219547
aF-0.07635758072137833
aF0.0
aF-0.019919387996196747
aF-0.010379434563219547
aF-0.019919387996196747
aF0.03459816426038742
aF0.006639785598963499
aF-0.010379434563219547
aF-0.04979844018816948
aF-0.010379434563219547
aF-0.04979844018816948
aF0.01729905605316162
aF0.006639785598963499
aF0.01729905605316162
aaaa(lp352
aa(lp353
F0.038880854845047
aF0.0032264753244817257
aF0.20379671454429626
aF-1.862645149230957e-09
aF-0.2567524015903473
aF0.0827939510345459
aa(lp354
F0.08863634616136551
aF-0.05748450756072998
aF0.3676814138889313
aF0.2011408805847168
aF-0.11478569358587265
aF0.03804829716682434
aaI0
aaa(lp355
F1363683931.916
a(lp356
(lp357
I1363683936
aI652652
aa(lp358
(lp359
(lp360
I0
aF-0.006639817263931036
aF-0.12801314890384674
aF0.2987906336784363
aF0.31138330698013306
aa(lp361
I-1
aF0.0
ag9
a(lp362
F0.03651886805891991
aF-0.16261129081249237
aF0.03651886805891991
aF-0.16261129081249237
aF0.06639792025089264
aF-0.16261129081249237
aF0.053118348121643066
aF-0.17299073934555054
aF0.053118348121643066
aF-0.1522318422794342
aF0.06307800859212875
aF-0.17299073934555054
aF0.04315865412354469
aF-0.17299073934555054
aa(lp363
F-0.053118348121643066
aF-0.1695309281349182
aF-0.03651886805891991
aF-0.17299073934555054
aF-0.06307800859212875
aF-0.17299073934555054
aF-0.04979844018816948
aF-0.17991036176681519
aF-0.04979844018816948
aF-0.15915147960186005
aF-0.039838775992393494
aF-0.17991036176681519
aF-0.053118348121643066
aF-0.17991036176681519
aa(lp364
F0.023239266127347946
aF-0.1833701729774475
aF0.04315865412354469
aF-0.19028979539871216
aF0.5345032811164856
aF-0.41863757371902466
aa(lp365
F0.512499988079071
aF0.2708333432674408
aF0.550000011920929
aF0.26249998807907104
aF-0.0031250000465661287
aF-0.004166666883975267
aa(lp366
F-0.019919387996196747
aF-0.08649536222219467
aF-0.009959662333130836
aF-0.08649536222219467
aF-0.03651886805891991
aF-0.08649536222219467
aa(lp367
F0.03319896012544632
aF-0.02421870455145836
aF-0.043158624321222305
aF-0.03459813818335533
aF-0.003319908631965518
aF-0.04151778668165207
aF-0.003319908631965518
aF-0.003459811443462968
aF0.019919387996196747
aF-0.04151778668165207
aF-0.023239297792315483
aF-0.04151778668165207
aF-0.023239297792315483
aF-0.020758893340826035
aF0.019919387996196747
aF-0.01729908213019371
aaaa(lp368
aa(lp369
F0.038880854845047
aF0.0032264753244817257
aF0.20379671454429626
aF-1.862645149230957e-09
aF-0.2567524015903473
aF0.0827939510345459
aa(lp370
F0.08874335139989853
aF-0.05753820762038231
aF0.3677200376987457
aF0.20132099092006683
aF-0.11446061730384827
aF0.038027696311473846
aaI0
aaa(lp371
F1363683932.248
a(lp372
(lp373
I1363683937
aI152832
aa(lp374
(lp375
(lp376
I0
aF0.00829974003136158
aF-0.10552435368299484
aF0.22907282412052155
aF0.23872721195220947
aa(lp377
I-1
aF0.0
ag9
a(lp378
F0.03651886805891991
aF-0.12801314890384674
aF0.03651886805891991
aF-0.12801314890384674
aF0.06307800859212875
aF-0.1383925825357437
aF0.053118348121643066
aF-0.14531221985816956
aF0.053118348121643066
aF-0.12801314890384674
aF0.05975813418626785
aF-0.14531221985816956
aF0.04647853225469589
aF-0.14531221985816956
aa(lp379
F-0.026559142395853996
aF-0.1383925825357437
aF-0.013279571197926998
aF-0.14531221985816956
aF-0.029879052191972733
aF-0.1349327713251114
aF-0.019919387996196747
aF-0.1522318422794342
aF-0.019919387996196747
aF-0.1383925825357437
aF-0.01659948006272316
aF-0.1522318422794342
aF-0.023239297792315483
aF-0.1522318422794342
aa(lp380
F0.029879052191972733
aF-0.15569165349006653
aF0.04979844018816948
aF-0.15569165349006653
aF0.5345032811164856
aF-0.41863757371902466
aa(lp381
F0.49687498807907104
aF0.3125
aF0.5249999761581421
aF0.3125
aF-0.0031250000465661287
aF-0.004166666883975267
aa(lp382
F0.009959693998098373
aF-0.08303555101156235
aF0.029879052191972733
aF-0.08303555101156235
aF-0.006639817263931036
aF-0.08303555101156235
aa(lp383
F0.039838746190071106
aF-0.031138326972723007
aF-0.019919387996196747
aF-0.04151778668165207
aF0.013279571197926998
aF-0.04843740910291672
aF0.013279571197926998
aF-0.01729908213019371
aF0.026559174060821533
aF-0.04843740910291672
aF-0.003319908631965518
aF-0.04843740910291672
aF-0.003319908631965518
aF-0.031138326972723007
aF0.026559174060821533
aF-0.027678515762090683
aaaa(lp384
aa(lp385
F0.03888575732707977
aF0.0031668287701904774
aF0.20379671454429626
aF-1.862645149230957e-09
aF-0.2567524015903473
aF0.08125997334718704
aa(lp386
F0.0887819454073906
aF-0.057610318064689636
aF0.36771973967552185
aF0.20114265382289886
aF-0.11405634135007858
aF0.03655700385570526
aaI0
aaa(lp387
F1363683932.608
a(lp388
(lp389
I1363683937
aI152832
aa(lp390
(lp391
(lp392
I0
aF0.00829974003136158
aF-0.10552435368299484
aF0.22907282412052155
aF0.23872721195220947
aa(lp393
I-1
aF0.0
ag9
a(lp394
F0.03651886805891991
aF-0.12801314890384674
aF0.03651886805891991
aF-0.12801314890384674
aF0.06307800859212875
aF-0.1383925825357437
aF0.053118348121643066
aF-0.14531221985816956
aF0.053118348121643066
aF-0.12801314890384674
aF0.05975813418626785
aF-0.14531221985816956
aF0.04647853225469589
aF-0.14531221985816956
aa(lp395
F-0.026559142395853996
aF-0.1383925825357437
aF-0.013279571197926998
aF-0.14531221985816956
aF-0.029879052191972733
aF-0.1349327713251114
aF-0.019919387996196747
aF-0.1522318422794342
aF-0.019919387996196747
aF-0.1383925825357437
aF-0.01659948006272316
aF-0.1522318422794342
aF-0.023239297792315483
aF-0.1522318422794342
aa(lp396
F0.029879052191972733
aF-0.15569165349006653
aF0.04979844018816948
aF-0.15569165349006653
aF0.5345032811164856
aF-0.41863757371902466
aa(lp397
F0.49687498807907104
aF0.3125
aF0.5249999761581421
aF0.3125
aF-0.0031250000465661287
aF-0.004166666883975267
aa(lp398
F0.009959693998098373
aF-0.08303555101156235
aF0.029879052191972733
aF-0.08303555101156235
aF-0.006639817263931036
aF-0.08303555101156235
aa(lp399
F0.039838746190071106
aF-0.031138326972723007
aF-0.019919387996196747
aF-0.04151778668165207
aF0.013279571197926998
aF-0.04843740910291672
aF0.013279571197926998
aF-0.01729908213019371
aF0.026559174060821533
aF-0.04843740910291672
aF-0.003319908631965518
aF-0.04843740910291672
aF-0.003319908631965518
aF-0.031138326972723007
aF0.026559174060821533
aF-0.027678515762090683
aaaa(lp400
aa(lp401
F0.03888575732707977
aF0.0031668287701904774
aF0.20379671454429626
aF-1.862645149230957e-09
aF-0.2567524015903473
aF0.08125997334718704
aa(lp402
F0.0887819454073906
aF-0.057610318064689636
aF0.36771973967552185
aF0.20114265382289886
aF-0.11405634135007858
aF0.03655700385570526
aaI0
aaa(lp403
F1363683932.941
a(lp404
(lp405
I1363683937
aI686366
aa(lp406
(lp407
(lp408
I0
aF0.009959693998098373
aF-0.11763370782136917
aF0.17927439510822296
aF0.18682998418807983
aa(lp409
I-1
aF0.0
ag9
a(lp410
F0.03319896012544632
aF-0.13147296011447906
aF0.03319896012544632
aF-0.13147296011447906
aF0.053118348121643066
aF-0.1383925825357437
aF0.04315865412354469
aF-0.14531221985816956
aF0.04315865412354469
aF-0.1349327713251114
aF0.04979844018816948
aF-0.14531221985816956
aF0.039838746190071106
aF-0.14531221985816956
aa(lp411
F-0.01659948006272316
aF-0.14185239374637604
aF-0.003319908631965518
aF-0.1383925825357437
aF-0.019919387996196747
aF-0.14877203106880188
aF-0.009959662333130836
aF-0.1522318422794342
aF-0.009959662333130836
aF-0.14185239374637604
aF-0.006639817263931036
aF-0.1522318422794342
aF-0.013279571197926998
aF-0.1522318422794342
aa(lp412
F0.023239266127347946
aF-0.15569165349006653
aF0.039838746190071106
aF-0.15569165349006653
aF0.5345032811164856
aF-0.41863757371902466
aa(lp413
F0.48750001192092896
aF0.3125
aF0.512499988079071
aF0.3125
aF-0.0031250000465661287
aF-0.004166666883975267
aa(lp414
F0.009959693998098373
aF-0.10379444062709808
aF0.023239266127347946
aF-0.10379444062709808
aF-0.003319908631965518
aF-0.10379444062709808
aa(lp415
F0.03319896012544632
aF-0.062276653945446014
aF-0.013279571197926998
aF-0.06919629871845245
aF0.013279571197926998
aF-0.0761159211397171
aF0.013279571197926998
aF-0.055357031524181366
aF0.023239266127347946
aF-0.0761159211397171
aF-0.0
aF-0.0761159211397171
aF-0.0
aF-0.062276653945446014
aF0.023239266127347946
aF-0.055357031524181366
aaaa(lp416
aa(lp417
F0.03888575732707977
aF0.0031668287701904774
aF0.20379671454429626
aF-1.862645149230957e-09
aF-0.2567524015903473
aF0.08125997334718704
aa(lp418
F0.08859695494174957
aF-0.05752149224281311
aF0.3676479160785675
aF0.20085589587688446
aF-0.114603191614151
aF0.036592040210962296
aaI0
aaa(lp419
F1363683933.273
a(lp420
(lp421
I1363683938
aI153195
aa(lp422
(lp423
(lp424
I0
aF-0.001659922651015222
aF-0.10898415744304657
aF0.1693146973848343
aF0.17645055055618286
aa(lp425
I-1
aF0.0
ag9
a(lp426
F0.01659948006272316
aF-0.12455333024263382
aF0.01659948006272316
aF-0.12455333024263382
aF0.03651886805891991
aF-0.13147296011447906
aF0.026559174060821533
aF-0.1383925825357437
aF0.026559174060821533
aF-0.12801314890384674
aF0.03319896012544632
aF-0.1383925825357437
aF0.023239266127347946
aF-0.1383925825357437
aa(lp427
F-0.029879052191972733
aF-0.13147296011447906
aF-0.01659948006272316
aF-0.12801314890384674
aF-0.03651886805891991
aF-0.1383925825357437
aF-0.026559142395853996
aF-0.14185239374637604
aF-0.026559142395853996
aF-0.13147296011447906
aF-0.023239297792315483
aF-0.14185239374637604
aF-0.029879052191972733
aF-0.14531221985816956
aa(lp428
F0.013279571197926998
aF-0.14877203106880188
aF0.026559174060821533
aF-0.14877203106880188
aF0.5345032811164856
aF-0.41863757371902466
aa(lp429
F0.503125011920929
aF0.3166666626930237
aF0.528124988079071
aF0.3125
aF-0.0031250000465661287
aF-0.004166666883975267
aa(lp430
F-0.003319908631965518
aF-0.10033462941646576
aF0.009959693998098373
aF-0.10033462941646576
aF-0.013279571197926998
aF-0.10033462941646576
aa(lp431
F0.023239266127347946
aF-0.062276653945446014
aF-0.026559142395853996
aF-0.06919629871845245
aF-0.0
aF-0.0761159211397171
aF-0.0
aF-0.055357031524181366
aF0.009959693998098373
aF-0.0761159211397171
aF-0.013279571197926998
aF-0.0761159211397171
aF-0.013279571197926998
aF-0.05881684273481369
aF0.009959693998098373
aF-0.05881684273481369
aaaa(lp432
aa(lp433
F0.038880854845047
aF0.0032264753244817257
aF0.20379671454429626
aF-1.862645149230957e-09
aF-0.2567524015903473
aF0.0827939510345459
aa(lp434
F0.08861251920461655
aF-0.057472556829452515
aF0.3676714599132538
aF0.20110130310058594
aF-0.11485719680786133
aF0.03805283457040787
aaI0
aaa(lp435
F1363683933.606
a(lp436
(lp437
I1363683938
aI153195
aa(lp438
(lp439
(lp440
I0
aF-0.001659922651015222
aF-0.10898415744304657
aF0.1693146973848343
aF0.17645055055618286
aa(lp441
I-1
aF0.0
ag9
a(lp442
F0.01659948006272316
aF-0.12455333024263382
aF0.01659948006272316
aF-0.12455333024263382
aF0.03651886805891991
aF-0.13147296011447906
aF0.026559174060821533
aF-0.1383925825357437
aF0.026559174060821533
aF-0.12801314890384674
aF0.03319896012544632
aF-0.1383925825357437
aF0.023239266127347946
aF-0.1383925825357437
aa(lp443
F-0.029879052191972733
aF-0.13147296011447906
aF-0.01659948006272316
aF-0.12801314890384674
aF-0.03651886805891991
aF-0.1383925825357437
aF-0.026559142395853996
aF-0.14185239374637604
aF-0.026559142395853996
aF-0.13147296011447906
aF-0.023239297792315483
aF-0.14185239374637604
aF-0.029879052191972733
aF-0.14531221985816956
aa(lp444
F0.013279571197926998
aF-0.14877203106880188
aF0.026559174060821533
aF-0.14877203106880188
aF0.5345032811164856
aF-0.41863757371902466
aa(lp445
F0.503125011920929
aF0.3166666626930237
aF0.528124988079071
aF0.3125
aF-0.0031250000465661287
aF-0.004166666883975267
aa(lp446
F-0.003319908631965518
aF-0.10033462941646576
aF0.009959693998098373
aF-0.10033462941646576
aF-0.013279571197926998
aF-0.10033462941646576
aa(lp447
F0.023239266127347946
aF-0.062276653945446014
aF-0.026559142395853996
aF-0.06919629871845245
aF-0.0
aF-0.0761159211397171
aF-0.0
aF-0.055357031524181366
aF0.009959693998098373
aF-0.0761159211397171
aF-0.013279571197926998
aF-0.0761159211397171
aF-0.013279571197926998
aF-0.05881684273481369
aF0.009959693998098373
aF-0.05881684273481369
aaaa(lp448
aa(lp449
F0.038880854845047
aF0.0032264753244817257
aF0.20379671454429626
aF-1.862645149230957e-09
aF-0.2567524015903473
aF0.0827939510345459
aa(lp450
F0.08861251920461655
aF-0.057472556829452515
aF0.3676714599132538
aF0.20110130310058594
aF-0.11485719680786133
aF0.03805283457040787
aaI0
aaa(lp451
F1363683933.935
a(lp452
(lp453
I1363683938
aI686726
aa(lp454
(lp455
(lp456
I0
aF-0.006639817263931036
aF-0.15569165349006653
aF0.1593550145626068
aF0.1660711020231247
aa(lp457
I-1
aF0.0
ag9
a(lp458
F0.5345032811164856
aF-0.41863757371902466
aF0.5345032811164856
aF-0.41863757371902466
aF0.5345032811164856
aF-0.41863757371902466
aF0.5345032811164856
aF-0.41863757371902466
aF0.5345032811164856
aF-0.41863757371902466
aF0.5345032811164856
aF-0.41863757371902466
aF0.5345032811164856
aF-0.41863757371902466
aa(lp459
F-0.03319896012544632
aF-0.17645055055618286
aF0.5345032811164856
aF-0.41863757371902466
aF0.5345032811164856
aF-0.41863757371902466
aF0.5345032811164856
aF-0.41863757371902466
aF0.5345032811164856
aF-0.41863757371902466
aF0.5345032811164856
aF-0.41863757371902466
aF0.5345032811164856
aF-0.41863757371902466
aa(lp460
F0.5345032811164856
aF-0.41863757371902466
aF0.5345032811164856
aF-0.41863757371902466
aF0.5345032811164856
aF-0.41863757371902466
aa(lp461
F-0.0031250000465661287
aF-0.004166666883975267
aF-0.0031250000465661287
aF-0.004166666883975267
aF-0.0031250000465661287
aF-0.004166666883975267
aa(lp462
F0.5345032811164856
aF-0.41863757371902466
aF0.5345032811164856
aF-0.41863757371902466
aF0.5345032811164856
aF-0.41863757371902466
aa(lp463
F0.5345032811164856
aF-0.41863757371902466
aF0.5345032811164856
aF-0.41863757371902466
aF0.5345032811164856
aF-0.41863757371902466
aF0.5345032811164856
aF-0.41863757371902466
aF0.5345032811164856
aF-0.41863757371902466
aF0.5345032811164856
aF-0.41863757371902466
aF0.5345032811164856
aF-0.41863757371902466
aF0.5345032811164856
aF-0.41863757371902466
aaaa(lp464
aa(lp465
F0.03888575732707977
aF0.0031668287701904774
aF0.20379671454429626
aF-1.862645149230957e-09
aF-0.2567524015903473
aF0.08125997334718704
aa(lp466
F0.08863316476345062
aF-0.05753803253173828
aF0.36766675114631653
aF0.20090144872665405
aF-0.11450941860675812
aF0.03658587858080864
aaI0
aaaa.