(lp0
F1363685924.492
a(lp1
(lp2
F1363685928.299
a(lp3
(lp4
I1363685933
aI197173
aa(lp5
(lp6
(lp7
I0
aF-0.27223148941993713
aF-0.17299073934555054
aF0.4183069169521332
aF0.4359366297721863
aa(lp8
I-1
aF0.0
aS''
p9
a(lp10
F-0.19919376075267792
aF-0.20066925883293152
aF-0.19919376075267792
aF-0.20066925883293152
aF-0.17595446109771729
aF-0.19028979539871216
aF-0.18591418862342834
aF-0.2110486924648285
aF-0.18591418862342834
aF-0.1833701729774475
aF-0.17927436530590057
aF-0.2110486924648285
aF-0.18923409283161163
aF-0.2110486924648285
aa(lp11
F-0.31207022070884705
aF-0.25256648659706116
aF-0.2921508252620697
aF-0.24910666048526764
aF-0.31539011001586914
aF-0.24910666048526764
aF-0.30543047189712524
aF-0.26294592022895813
aF-0.30543047189712524
aF-0.24910666048526764
aF-0.2987906336784363
aF-0.2698655426502228
aF-0.30875030159950256
aF-0.26294592022895813
aa(lp12
F-0.2124733328819275
aF-0.21450850367546082
aF-0.18923409283161163
aF-0.21450850367546082
aF0.5345032811164856
aF-0.41863757371902466
aa(lp13
F0.765625
aF0.14166666567325592
aF0.793749988079071
aF0.15416666865348816
aF-0.0031250000465661287
aF-0.004166666883975267
aa(lp14
F-0.2556320130825043
aF-0.08303555101156235
aF-0.22243306040763855
aF-0.08303555101156235
aF-0.2855110764503479
aF-0.08303555101156235
aa(lp15
F-0.21911315619945526
aF-0.04497759789228439
aF-0.2987906336784363
aF-0.05881684273481369
aF-0.258951872587204
aF-0.05881684273481369
aF-0.258951872587204
aF-0.020758893340826035
aF-0.23571263253688812
aF-0.05881684273481369
aF-0.27887123823165894
aF-0.05881684273481369
aF-0.27887123823165894
aF-0.04497759789228439
aF-0.23571263253688812
aF-0.038057949393987656
aaaa(lp16
aa(lp17
F0.04537603259086609
aF0.005665415432304144
aF0.20002436637878418
aF-1.862645149230957e-09
aF-0.16778050363063812
aF0.12421201914548874
aa(lp18
F0.1276143193244934
aF0.05433544144034386
aF0.35857507586479187
aF-0.11322560906410217
aF0.11380449682474136
aF0.11587996035814285
aaI0
aaa(lp19
F1363685928.581
a(lp20
(lp21
I1363685933
aI197173
aa(lp22
(lp23
(lp24
I0
aF-0.27223148941993713
aF-0.17299073934555054
aF0.4183069169521332
aF0.4359366297721863
aa(lp25
I-1
aF0.0
ag9
a(lp26
F-0.19919376075267792
aF-0.20066925883293152
aF-0.19919376075267792
aF-0.20066925883293152
aF-0.17595446109771729
aF-0.19028979539871216
aF-0.18591418862342834
aF-0.2110486924648285
aF-0.18591418862342834
aF-0.1833701729774475
aF-0.17927436530590057
aF-0.2110486924648285
aF-0.18923409283161163
aF-0.2110486924648285
aa(lp27
F-0.31207022070884705
aF-0.25256648659706116
aF-0.2921508252620697
aF-0.24910666048526764
aF-0.31539011001586914
aF-0.24910666048526764
aF-0.30543047189712524
aF-0.26294592022895813
aF-0.30543047189712524
aF-0.24910666048526764
aF-0.2987906336784363
aF-0.2698655426502228
aF-0.30875030159950256
aF-0.26294592022895813
aa(lp28
F-0.2124733328819275
aF-0.21450850367546082
aF-0.18923409283161163
aF-0.21450850367546082
aF0.5345032811164856
aF-0.41863757371902466
aa(lp29
F0.765625
aF0.14166666567325592
aF0.793749988079071
aF0.15416666865348816
aF-0.0031250000465661287
aF-0.004166666883975267
aa(lp30
F-0.2556320130825043
aF-0.08303555101156235
aF-0.22243306040763855
aF-0.08303555101156235
aF-0.2855110764503479
aF-0.08303555101156235
aa(lp31
F-0.21911315619945526
aF-0.04497759789228439
aF-0.2987906336784363
aF-0.05881684273481369
aF-0.258951872587204
aF-0.05881684273481369
aF-0.258951872587204
aF-0.020758893340826035
aF-0.23571263253688812
aF-0.05881684273481369
aF-0.27887123823165894
aF-0.05881684273481369
aF-0.27887123823165894
aF-0.04497759789228439
aF-0.23571263253688812
aF-0.038057949393987656
aaaa(lp32
aa(lp33
F0.04537603259086609
aF0.005665415432304144
aF0.20002436637878418
aF-1.862645149230957e-09
aF-0.16778050363063812
aF0.12421201914548874
aa(lp34
F0.1276143193244934
aF0.05433544144034386
aF0.35857507586479187
aF-0.11322560906410217
aF0.11380449682474136
aF0.11587996035814285
aaI0
aaa(lp35
F1363685928.915
a(lp36
(lp37
I1363685933
aI664004
aa(lp38
(lp39
(lp40
I0
aF-0.2622717618942261
aF-0.11071406304836273
aF0.3386293947696686
aF0.3529011011123657
aa(lp41
I-1
aF0.0
ag9
a(lp42
F-0.21911315619945526
aF-0.14531221985816956
aF-0.21911315619945526
aF-0.14531221985816956
aF-0.17263461649417877
aF-0.14877203106880188
aF-0.19255393743515015
aF-0.16261129081249237
aF-0.19255393743515015
aF-0.14531221985816956
aF-0.18259428441524506
aF-0.15915147960186005
aF-0.2025136649608612
aF-0.16261129081249237
aa(lp43
F-0.31207022070884705
aF-0.1660711020231247
aF-0.2987906336784363
aF-0.16261129081249237
aF-0.31539011001586914
aF-0.16261129081249237
aF-0.30543047189712524
aF-0.1695309281349182
aF-0.30543047189712524
aF-0.16261129081249237
aF-0.2987906336784363
aF-0.17299073934555054
aF-0.30875030159950256
aF-0.1695309281349182
aa(lp44
F0.5345032811164856
aF-0.41863757371902466
aF0.5345032811164856
aF-0.41863757371902466
aF0.5345032811164856
aF-0.41863757371902466
aa(lp45
F-0.0031250000465661287
aF-0.004166666883975267
aF0.0
aF-0.004166666883975267
aF-0.0031250000465661287
aF-0.004166666883975267
aa(lp46
F-0.258951872587204
aF-0.04151778668165207
aF-0.23571263253688812
aF-0.04151778668165207
aF-0.2821911573410034
aF-0.04151778668165207
aa(lp47
F-0.22575290501117706
aF-0.006919622886925936
aF-0.30875030159950256
aF-0.02421870455145836
aF-0.26559168100357056
aF-0.02421870455145836
aF-0.26559168100357056
aF0.013839245773851871
aF-0.2456722855567932
aF-0.02421870455145836
aF-0.2855110764503479
aF-0.02421870455145836
aF-0.2855110764503479
aF-0.003459811443462968
aF-0.2456722855567932
aF0.003459811443462968
aaaa(lp48
aa(lp49
F0.04537603259086609
aF0.005665415432304144
aF0.20002436637878418
aF-1.862645149230957e-09
aF-0.16778050363063812
aF0.12421201914548874
aa(lp50
F0.12779417634010315
aF0.05424972623586655
aF0.35851502418518066
aF-0.11308640241622925
aF0.11446449160575867
aF0.11543384939432144
aaI0
aaa(lp51
F1363685929.274
a(lp52
(lp53
I1363685934
aI197534
aa(lp54
(lp55
(lp56
I0
aF-0.06473799794912338
aF-0.12282341718673706
aF0.30875033140182495
aF0.3217627704143524
aa(lp57
I-1
aF0.0
ag9
a(lp58
F-0.009959662333130836
aF-0.14877203106880188
aF-0.009959662333130836
aF-0.14877203106880188
aF0.01659948006272316
aF-0.1522318422794342
aF0.003319908631965518
aF-0.15915147960186005
aF0.003319908631965518
aF-0.1522318422794342
aF0.009959693998098373
aF-0.15915147960186005
aF-0.003319908631965518
aF-0.15915147960186005
aa(lp59
F-0.10291679203510284
aF-0.17645055055618286
aF-0.07635758072137833
aF-0.16261129081249237
aF-0.1195162683725357
aF-0.1660711020231247
aF-0.09959688037633896
aF-0.19028979539871216
aF-0.09959688037633896
aF-0.16261129081249237
aF-0.0829973965883255
aF-0.18682998418807983
aF-0.10623670369386673
aF-0.19028979539871216
aa(lp60
F-0.009959662333130836
aF-0.20412907004356384
aF-0.006639817263931036
aF-0.20412907004356384
aF0.5345032811164856
aF-0.41863757371902466
aa(lp61
F0.59375
aF0.2291666716337204
aF0.596875011920929
aF0.23749999701976776
aF-0.0031250000465661287
aF-0.004166666883975267
aa(lp62
F0.5345032811164856
aF-0.41863757371902466
aF0.5345032811164856
aF-0.41863757371902466
aF0.5345032811164856
aF-0.41863757371902466
aa(lp63
F-0.01659948006272316
aF0.0
aF-0.09959688037633896
aF-0.010379434563219547
aF-0.05643825605511665
aF-0.013839269988238811
aF-0.05643825605511665
aF0.02421868033707142
aF-0.039838775992393494
aF-0.013839269988238811
aF-0.07635758072137833
aF-0.013839269988238811
aF-0.07635758072137833
aF0.013839245773851871
aF-0.039838775992393494
aF0.013839245773851871
aaaa(lp64
aa(lp65
F0.04537603259086609
aF0.005665415432304144
aF0.20002436637878418
aF-1.862645149230957e-09
aF-0.16778050363063812
aF0.12421201914548874
aa(lp66
F0.12776103615760803
aF0.054314106702804565
aF0.35857313871383667
aF-0.1130390614271164
aF0.11433616280555725
aF0.11618009954690933
aaI0
aaa(lp67
F1363685929.622
a(lp68
(lp69
I1363685934
aI197534
aa(lp70
(lp71
(lp72
I0
aF-0.06473799794912338
aF-0.12282341718673706
aF0.30875033140182495
aF0.3217627704143524
aa(lp73
I-1
aF0.0
ag9
a(lp74
F-0.009959662333130836
aF-0.14877203106880188
aF-0.009959662333130836
aF-0.14877203106880188
aF0.01659948006272316
aF-0.1522318422794342
aF0.003319908631965518
aF-0.15915147960186005
aF0.003319908631965518
aF-0.1522318422794342
aF0.009959693998098373
aF-0.15915147960186005
aF-0.003319908631965518
aF-0.15915147960186005
aa(lp75
F-0.10291679203510284
aF-0.17645055055618286
aF-0.07635758072137833
aF-0.16261129081249237
aF-0.1195162683725357
aF-0.1660711020231247
aF-0.09959688037633896
aF-0.19028979539871216
aF-0.09959688037633896
aF-0.16261129081249237
aF-0.0829973965883255
aF-0.18682998418807983
aF-0.10623670369386673
aF-0.19028979539871216
aa(lp76
F-0.009959662333130836
aF-0.20412907004356384
aF-0.006639817263931036
aF-0.20412907004356384
aF0.5345032811164856
aF-0.41863757371902466
aa(lp77
F0.59375
aF0.2291666716337204
aF0.596875011920929
aF0.23749999701976776
aF-0.0031250000465661287
aF-0.004166666883975267
aa(lp78
F0.5345032811164856
aF-0.41863757371902466
aF0.5345032811164856
aF-0.41863757371902466
aF0.5345032811164856
aF-0.41863757371902466
aa(lp79
F-0.01659948006272316
aF0.0
aF-0.09959688037633896
aF-0.010379434563219547
aF-0.05643825605511665
aF-0.013839269988238811
aF-0.05643825605511665
aF0.02421868033707142
aF-0.039838775992393494
aF-0.013839269988238811
aF-0.07635758072137833
aF-0.013839269988238811
aF-0.07635758072137833
aF0.013839245773851871
aF-0.039838775992393494
aF0.013839245773851871
aaaa(lp80
aa(lp81
F0.04537603259086609
aF0.005665415432304144
aF0.20002436637878418
aF-1.862645149230957e-09
aF-0.16778050363063812
aF0.12421201914548874
aa(lp82
F0.12776103615760803
aF0.054314106702804565
aF0.35857313871383667
aF-0.1130390614271164
aF0.11433616280555725
aF0.11618009954690933
aaI0
aaa(lp83
F1363685929.975
a(lp84
(lp85
I1363685934
aI664361
aa(lp86
(lp87
(lp88
I0
aF0.001659954315982759
aF-0.11590377986431122
aF0.2888309359550476
aF0.3010038733482361
aa(lp89
I-1
aF0.0
ag9
a(lp90
F0.04647853225469589
aF-0.1522318422794342
aF0.04647853225469589
aF-0.1522318422794342
aF0.07635761797428131
aF-0.1522318422794342
aF0.06307800859212875
aF-0.1660711020231247
aF0.06307800859212875
aF-0.14185239374637604
aF0.07303770631551743
aF-0.1660711020231247
aF0.053118348121643066
aF-0.15915147960186005
aa(lp91
F-0.043158624321222305
aF-0.16261129081249237
aF-0.029879052191972733
aF-0.15569165349006653
aF-0.04647853225469589
aF-0.15569165349006653
aF-0.039838775992393494
aF-0.1695309281349182
aF-0.039838775992393494
aF-0.1522318422794342
aF-0.03319896012544632
aF-0.1695309281349182
aF-0.043158624321222305
aF-0.1695309281349182
aa(lp92
F0.5345032811164856
aF-0.41863757371902466
aF0.5311833620071411
aF-0.41863757371902466
aF0.5345032811164856
aF-0.41863757371902466
aa(lp93
F-0.0031250000465661287
aF-0.004166666883975267
aF-0.0031250000465661287
aF-0.004166666883975267
aF-0.0031250000465661287
aF-0.004166666883975267
aa(lp94
F-0.003319908631965518
aF-0.05189722031354904
aF0.006639785598963499
aF-0.05189722031354904
aF-0.01659948006272316
aF-0.05189722031354904
aa(lp95
F0.03651886805891991
aF-0.01729908213019371
aF-0.039838775992393494
aF-0.027678515762090683
aF-0.0
aF-0.031138326972723007
aF-0.0
aF0.003459811443462968
aF0.01659948006272316
aF-0.031138326972723007
aF-0.01659948006272316
aF-0.031138326972723007
aF-0.01659948006272316
aF-0.010379434563219547
aF0.01659948006272316
aF-0.010379434563219547
aaaa(lp96
aa(lp97
F0.04537603259086609
aF0.005665415432304144
aF0.20002436637878418
aF-1.862645149230957e-09
aF-0.16778050363063812
aF0.12421201914548874
aa(lp98
F0.1275118887424469
aF0.05436622351408005
aF0.35867464542388916
aF-0.11285022646188736
aF0.11335063725709915
aF0.11729878932237625
aaI0
aaa(lp99
F1363685932.799
a(lp100
(lp101
I1363685937
aI732129
aa(lp102
(lp103
(lp104
I0
aF0.006639785598963499
aF-0.25256648659706116
aF0.1593550145626068
aF0.1660711020231247
aa(lp105
I-1
aF0.0
ag9
a(lp106
F0.029879052191972733
aF-0.2767851650714874
aF0.029879052191972733
aF-0.2767851650714874
aF0.04979844018816948
aF-0.2733253538608551
aF0.039838746190071106
aF-0.28370481729507446
aF0.039838746190071106
aF-0.2767851650714874
aF0.04647853225469589
aF-0.28370481729507446
aF0.03651886805891991
aF-0.28370481729507446
aa(lp107
F-0.019919387996196747
aF-0.2733253538608551
aF-0.006639817263931036
aF-0.2698655426502228
aF-0.029879052191972733
aF-0.2733253538608551
aF-0.01659948006272316
aF-0.28370481729507446
aF-0.01659948006272316
aF-0.2733253538608551
aF-0.009959662333130836
aF-0.28370481729507446
aF-0.023239297792315483
aF-0.28024500608444214
aa(lp108
F0.01659948006272316
aF-0.29754406213760376
aF0.029879052191972733
aF-0.29754406213760376
aF0.5345032811164856
aF-0.41863757371902466
aa(lp109
F0.4937500059604645
aF0.14166666567325592
aF0.515625
aF0.14166666567325592
aF-0.0031250000465661287
aF-0.004166666883975267
aa(lp110
F0.009959693998098373
aF-0.24564684927463531
aF0.023239266127347946
aF-0.24564684927463531
aF-0.003319908631965518
aF-0.24564684927463531
aa(lp111
F0.026559174060821533
aF-0.2110486924648285
aF-0.0
aF-0.2110486924648285
aF0.01659948006272316
aF-0.22142812609672546
aF0.01659948006272316
aF-0.20412907004356384
aF0.019919387996196747
aF-0.22142812609672546
aF0.009959693998098373
aF-0.22142812609672546
aF0.009959693998098373
aF-0.2110486924648285
aF0.019919387996196747
aF-0.2110486924648285
aaaa(lp112
aa(lp113
F0.04537603259086609
aF0.005665415432304144
aF0.20002436637878418
aF-1.862645149230957e-09
aF-0.16778050363063812
aF0.12421201914548874
aa(lp114
F0.12757588922977448
aF0.05437208339571953
aF0.35866230726242065
aF-0.1128985732793808
aF0.11360590159893036
aF0.11719028651714325
aaI0
aaa(lp115
F1363685933.08
a(lp116
(lp117
I1363685937
aI732129
aa(lp118
(lp119
(lp120
I0
aF0.006639785598963499
aF-0.25256648659706116
aF0.1593550145626068
aF0.1660711020231247
aa(lp121
I-1
aF0.0
ag9
a(lp122
F0.029879052191972733
aF-0.2767851650714874
aF0.029879052191972733
aF-0.2767851650714874
aF0.04979844018816948
aF-0.2733253538608551
aF0.039838746190071106
aF-0.28370481729507446
aF0.039838746190071106
aF-0.2767851650714874
aF0.04647853225469589
aF-0.28370481729507446
aF0.03651886805891991
aF-0.28370481729507446
aa(lp123
F-0.019919387996196747
aF-0.2733253538608551
aF-0.006639817263931036
aF-0.2698655426502228
aF-0.029879052191972733
aF-0.2733253538608551
aF-0.01659948006272316
aF-0.28370481729507446
aF-0.01659948006272316
aF-0.2733253538608551
aF-0.009959662333130836
aF-0.28370481729507446
aF-0.023239297792315483
aF-0.28024500608444214
aa(lp124
F0.01659948006272316
aF-0.29754406213760376
aF0.029879052191972733
aF-0.29754406213760376
aF0.5345032811164856
aF-0.41863757371902466
aa(lp125
F0.4937500059604645
aF0.14166666567325592
aF0.515625
aF0.14166666567325592
aF-0.0031250000465661287
aF-0.004166666883975267
aa(lp126
F0.009959693998098373
aF-0.24564684927463531
aF0.023239266127347946
aF-0.24564684927463531
aF-0.003319908631965518
aF-0.24564684927463531
aa(lp127
F0.026559174060821533
aF-0.2110486924648285
aF-0.0
aF-0.2110486924648285
aF0.01659948006272316
aF-0.22142812609672546
aF0.01659948006272316
aF-0.20412907004356384
aF0.019919387996196747
aF-0.22142812609672546
aF0.009959693998098373
aF-0.22142812609672546
aF0.009959693998098373
aF-0.2110486924648285
aF0.019919387996196747
aF-0.2110486924648285
aaaa(lp128
aa(lp129
F0.04537603259086609
aF0.005665415432304144
aF0.20002436637878418
aF-1.862645149230957e-09
aF-0.16778050363063812
aF0.12421201914548874
aa(lp130
F0.12757588922977448
aF0.05437208339571953
aF0.35866230726242065
aF-0.1128985732793808
aF0.11360590159893036
aF0.11719028651714325
aaI0
aaa(lp131
F1363685933.418
a(lp132
(lp133
I1363685938
aI198963
aa(lp134
(lp135
(lp136
I0
aF-0.009959662333130836
aF-0.14185239374637604
aF0.17927439510822296
aF0.18682998418807983
aa(lp137
I-1
aF0.0
ag9
a(lp138
F0.009959693998098373
aF-0.16261129081249237
aF0.009959693998098373
aF-0.16261129081249237
aF0.03319896012544632
aF-0.1660711020231247
aF0.023239266127347946
aF-0.17991036176681519
aF0.023239266127347946
aF-0.1660711020231247
aF0.029879052191972733
aF-0.17991036176681519
aF0.01659948006272316
aF-0.17645055055618286
aa(lp139
F-0.039838775992393494
aF-0.1660711020231247
aF-0.029879052191972733
aF-0.1660711020231247
aF-0.04979844018816948
aF-0.16261129081249237
aF-0.039838775992393494
aF-0.17645055055618286
aF-0.039838775992393494
aF-0.1660711020231247
aF-0.03319896012544632
aF-0.17645055055618286
aF-0.043158624321222305
aF-0.17991036176681519
aa(lp140
F-0.0
aF-0.18682998418807983
aF0.01659948006272316
aF-0.19028979539871216
aF0.5345032811164856
aF-0.41863757371902466
aa(lp141
F0.512499988079071
aF0.2750000059604645
aF0.5375000238418579
aF0.2708333432674408
aF-0.0031250000465661287
aF-0.004166666883975267
aa(lp142
F-0.006639817263931036
aF-0.12801314890384674
aF0.006639785598963499
aF-0.12801314890384674
aF-0.019919387996196747
aF-0.12801314890384674
aa(lp143
F0.013279571197926998
aF-0.08649536222219467
aF-0.023239297792315483
aF-0.089955173432827
aF-0.006639817263931036
aF-0.10379444062709808
aF-0.006639817263931036
aF-0.06919629871845245
aF0.003319908631965518
aF-0.10379444062709808
aF-0.013279571197926998
aF-0.10379444062709808
aF-0.013279571197926998
aF-0.0761159211397171
aF0.003319908631965518
aF-0.0761159211397171
aaaa(lp144
aa(lp145
F0.04537603259086609
aF0.005665415432304144
aF0.20002436637878418
aF-1.862645149230957e-09
aF-0.16778050363063812
aF0.12421201914548874
aa(lp146
F0.12757337093353271
aF0.05438646674156189
aF0.3586714267730713
aF-0.11290677636861801
aF0.11359909921884537
aF0.11730069667100906
aaI0
aaa(lp147
F1363685933.795
a(lp148
(lp149
I1363685938
aI732486
aa(lp150
(lp151
(lp152
I0
aF0.003319908631965518
aF0.003459811443462968
aF0.19919376075267792
aF0.20758888125419617
aa(lp153
I-1
aF0.0
ag9
a(lp154
F0.029879052191972733
aF-0.013839269988238811
aF0.029879052191972733
aF-0.013839269988238811
aF0.04647853225469589
aF-0.01729908213019371
aF0.039838746190071106
aF-0.027678515762090683
aF0.039838746190071106
aF-0.01729908213019371
aF0.04315865412354469
aF-0.027678515762090683
aF0.03651886805891991
aF-0.027678515762090683
aa(lp155
F-0.026559142395853996
aF-0.02421870455145836
aF-0.009959662333130836
aF-0.01729908213019371
aF-0.03319896012544632
aF-0.027678515762090683
aF-0.019919387996196747
aF-0.03459813818335533
aF-0.019919387996196747
aF-0.020758893340826035
aF-0.013279571197926998
aF-0.03459813818335533
aF-0.026559142395853996
aF-0.03459813818335533
aa(lp156
F0.019919387996196747
aF-0.04497759789228439
aF0.03651886805891991
aF-0.04497759789228439
aF0.5345032811164856
aF-0.41863757371902466
aa(lp157
F0.4937500059604645
aF0.44583332538604736
aF0.5218750238418579
aF0.4416666626930237
aF-0.0031250000465661287
aF-0.004166666883975267
aa(lp158
F0.006639785598963499
aF0.013839245773851871
aF0.023239266127347946
aF0.013839245773851871
aF-0.009959662333130836
aF0.013839245773851871
aa(lp159
F0.029879052191972733
aF0.05881684273481369
aF-0.019919387996196747
aF0.055357031524181366
aF0.006639785598963499
aF0.04151778668165207
aF0.006639785598963499
aF0.06919627636671066
aF0.01659948006272316
aF0.04151778668165207
aF-0.006639817263931036
aF0.04151778668165207
aF-0.006639817263931036
aF0.062276653945446014
aF0.01659948006272316
aF0.062276653945446014
aaaa(lp160
aa(lp161
F0.04537603259086609
aF0.005665415432304144
aF0.20002436637878418
aF-1.862645149230957e-09
aF-0.16778050363063812
aF0.12421201914548874
aa(lp162
F0.1275714784860611
aF0.054369036108255386
aF0.35866186022758484
aF-0.11289192736148834
aF0.1135873794555664
aF0.11718276888132095
aaI0
aaa(lp163
F1363685934.167
a(lp164
(lp165
I1363685938
aI732486
aa(lp166
(lp167
(lp168
I0
aF0.003319908631965518
aF0.003459811443462968
aF0.19919376075267792
aF0.20758888125419617
aa(lp169
I-1
aF0.0
ag9
a(lp170
F0.029879052191972733
aF-0.013839269988238811
aF0.029879052191972733
aF-0.013839269988238811
aF0.04647853225469589
aF-0.01729908213019371
aF0.039838746190071106
aF-0.027678515762090683
aF0.039838746190071106
aF-0.01729908213019371
aF0.04315865412354469
aF-0.027678515762090683
aF0.03651886805891991
aF-0.027678515762090683
aa(lp171
F-0.026559142395853996
aF-0.02421870455145836
aF-0.009959662333130836
aF-0.01729908213019371
aF-0.03319896012544632
aF-0.027678515762090683
aF-0.019919387996196747
aF-0.03459813818335533
aF-0.019919387996196747
aF-0.020758893340826035
aF-0.013279571197926998
aF-0.03459813818335533
aF-0.026559142395853996
aF-0.03459813818335533
aa(lp172
F0.019919387996196747
aF-0.04497759789228439
aF0.03651886805891991
aF-0.04497759789228439
aF0.5345032811164856
aF-0.41863757371902466
aa(lp173
F0.4937500059604645
aF0.44583332538604736
aF0.5218750238418579
aF0.4416666626930237
aF-0.0031250000465661287
aF-0.004166666883975267
aa(lp174
F0.006639785598963499
aF0.013839245773851871
aF0.023239266127347946
aF0.013839245773851871
aF-0.009959662333130836
aF0.013839245773851871
aa(lp175
F0.029879052191972733
aF0.05881684273481369
aF-0.019919387996196747
aF0.055357031524181366
aF0.006639785598963499
aF0.04151778668165207
aF0.006639785598963499
aF0.06919627636671066
aF0.01659948006272316
aF0.04151778668165207
aF-0.006639817263931036
aF0.04151778668165207
aF-0.006639817263931036
aF0.062276653945446014
aF0.01659948006272316
aF0.062276653945446014
aaaa(lp176
aa(lp177
F0.04537603259086609
aF0.005665415432304144
aF0.20002436637878418
aF-1.862645149230957e-09
aF-0.16778050363063812
aF0.12421201914548874
aa(lp178
F0.1275714784860611
aF0.054369036108255386
aF0.35866186022758484
aF-0.11289192736148834
aF0.1135873794555664
aF0.11718276888132095
aaI0
aaa(lp179
F1363685934.537
a(lp180
(lp181
I1363685939
aI199325
aa(lp182
(lp183
(lp184
I0
aF0.021579312160611153
aF0.01210936438292265
aF0.18923406302928925
aF0.197209432721138
aa(lp185
I-1
aF0.0
ag9
a(lp186
F0.04315865412354469
aF-0.006919622886925936
aF0.04315865412354469
aF-0.006919622886925936
aF0.06307800859212875
aF-0.013839269988238811
aF0.053118348121643066
aF-0.020758893340826035
aF0.053118348121643066
aF-0.010379434563219547
aF0.05975813418626785
aF-0.020758893340826035
aF0.04979844018816948
aF-0.020758893340826035
aa(lp187
F-0.009959662333130836
aF-0.013839269988238811
aF0.006639785598963499
aF-0.010379434563219547
aF-0.013279571197926998
aF-0.01729908213019371
aF-0.003319908631965518
aF-0.02421870455145836
aF-0.003319908631965518
aF-0.013839269988238811
aF0.003319908631965518
aF-0.02421870455145836
aF-0.006639817263931036
aF-0.02421870455145836
aa(lp188
F0.029879052191972733
aF-0.031138326972723007
aF0.04979844018816948
aF-0.03459813818335533
aF0.5345032811164856
aF-0.41863757371902466
aa(lp189
F0.48124998807907104
aF0.4583333432674408
aF0.5062500238418579
aF0.4583333432674408
aF-0.0031250000465661287
aF-0.004166666883975267
aa(lp190
F0.019919387996196747
aF0.02421868033707142
aF0.03319896012544632
aF0.02421868033707142
aF0.006639785598963499
aF0.02421868033707142
aa(lp191
F0.04647853225469589
aF0.06919627636671066
aF-0.003319908631965518
aF0.06573646515607834
aF0.023239266127347946
aF0.05189722031354904
aF0.023239266127347946
aF0.07957576215267181
aF0.03319896012544632
aF0.05189722031354904
aF0.009959693998098373
aF0.05189722031354904
aF0.009959693998098373
aF0.06919627636671066
aF0.03319896012544632
aF0.07265608757734299
aaaa(lp192
aa(lp193
F0.04537603259086609
aF0.005665415432304144
aF0.20002436637878418
aF-1.862645149230957e-09
aF-0.16778050363063812
aF0.12421201914548874
aa(lp194
F0.12758296728134155
aF0.05438394844532013
aF0.35866719484329224
aF-0.1129143014550209
aF0.1136370375752449
aF0.11725212633609772
aaI0
aaa(lp195
F1363685934.903
a(lp196
(lp197
I1363685939
aI799535
aa(lp198
(lp199
(lp200
I0
aF0.018259434029459953
aF0.029408421367406845
aF0.22907282412052155
aF0.23872721195220947
aa(lp201
I-1
aF0.0
ag9
a(lp202
F0.04979844018816948
aF-0.006919622886925936
aF0.04979844018816948
aF-0.006919622886925936
aF0.07635761797428131
aF-0.006919622886925936
aF0.06639792025089264
aF-0.013839269988238811
aF0.06639792025089264
aF0.0
aF0.07303770631551743
aF-0.010379434563219547
aF0.056438226252794266
aF-0.013839269988238811
aa(lp203
F-0.019919387996196747
aF-0.003459811443462968
aF-0.006639817263931036
aF-0.010379434563219547
aF-0.026559142395853996
aF-0.010379434563219547
aF-0.01659948006272316
aF-0.013839269988238811
aF-0.01659948006272316
aF-0.003459811443462968
aF-0.009959662333130836
aF-0.013839269988238811
aF-0.019919387996196747
aF-0.013839269988238811
aa(lp204
F0.03651886805891991
aF-0.027678515762090683
aF0.053118348121643066
aF-0.027678515762090683
aF0.5345032811164856
aF-0.41863757371902466
aa(lp205
F0.48750001192092896
aF0.46666666865348816
aF0.518750011920929
aF0.46666666865348816
aF-0.0031250000465661287
aF-0.004166666883975267
aa(lp206
F0.01659948006272316
aF0.04497759789228439
aF0.03651886805891991
aF0.04497759789228439
aF-0.0
aF0.04497759789228439
aa(lp207
F0.04979844018816948
aF0.09341500699520111
aF-0.013279571197926998
aF0.09341500699520111
aF0.019919387996196747
aF0.08303557336330414
aF0.019919387996196747
aF0.10725425183773041
aF0.03319896012544632
aF0.08303557336330414
aF0.003319908631965518
aF0.08303557336330414
aF0.003319908631965518
aF0.10033462941646576
aF0.03319896012544632
aF0.10033462941646576
aaaa(lp208
aa(lp209
F0.04537603259086609
aF0.005665415432304144
aF0.20002436637878418
aF-1.862645149230957e-09
aF-0.16778050363063812
aF0.12421201914548874
aa(lp210
F0.12758958339691162
aF0.0543835312128067
aF0.35866498947143555
aF-0.11292043328285217
aF0.11366350203752518
aF0.11722802370786667
aaI0
aaa(lp211
F1363685935.251
a(lp212
(lp213
I1363685939
aI799535
aa(lp214
(lp215
(lp216
I0
aF0.018259434029459953
aF0.029408421367406845
aF0.22907282412052155
aF0.23872721195220947
aa(lp217
I-1
aF0.0
ag9
a(lp218
F0.04979844018816948
aF-0.006919622886925936
aF0.04979844018816948
aF-0.006919622886925936
aF0.07635761797428131
aF-0.006919622886925936
aF0.06639792025089264
aF-0.013839269988238811
aF0.06639792025089264
aF0.0
aF0.07303770631551743
aF-0.010379434563219547
aF0.056438226252794266
aF-0.013839269988238811
aa(lp219
F-0.019919387996196747
aF-0.003459811443462968
aF-0.006639817263931036
aF-0.010379434563219547
aF-0.026559142395853996
aF-0.010379434563219547
aF-0.01659948006272316
aF-0.013839269988238811
aF-0.01659948006272316
aF-0.003459811443462968
aF-0.009959662333130836
aF-0.013839269988238811
aF-0.019919387996196747
aF-0.013839269988238811
aa(lp220
F0.03651886805891991
aF-0.027678515762090683
aF0.053118348121643066
aF-0.027678515762090683
aF0.5345032811164856
aF-0.41863757371902466
aa(lp221
F0.48750001192092896
aF0.46666666865348816
aF0.518750011920929
aF0.46666666865348816
aF-0.0031250000465661287
aF-0.004166666883975267
aa(lp222
F0.01659948006272316
aF0.04497759789228439
aF0.03651886805891991
aF0.04497759789228439
aF-0.0
aF0.04497759789228439
aa(lp223
F0.04979844018816948
aF0.09341500699520111
aF-0.013279571197926998
aF0.09341500699520111
aF0.019919387996196747
aF0.08303557336330414
aF0.019919387996196747
aF0.10725425183773041
aF0.03319896012544632
aF0.08303557336330414
aF0.003319908631965518
aF0.08303557336330414
aF0.003319908631965518
aF0.10033462941646576
aF0.03319896012544632
aF0.10033462941646576
aaaa(lp224
aa(lp225
F0.04537603259086609
aF0.005665415432304144
aF0.20002436637878418
aF-1.862645149230957e-09
aF-0.16778050363063812
aF0.12421201914548874
aa(lp226
F0.12758958339691162
aF0.0543835312128067
aF0.35866498947143555
aF-0.11292043328285217
aF0.11366350203752518
aF0.11722802370786667
aaI0
aaa(lp227
F1363685935.61
a(lp228
(lp229
I1363685940
aI233025
aa(lp230
(lp231
(lp232
I0
aF0.04813848435878754
aF-0.015569175593554974
aF0.2489922046661377
aF0.2594861090183258
aa(lp233
I-1
aF0.0
ag9
a(lp234
F0.07967749238014221
aF-0.04497759789228439
aF0.07967749238014221
aF-0.04497759789228439
aF0.09959688037633896
aF-0.04497759789228439
aF0.09295709431171417
aF-0.055357031524181366
aF0.09295709431171417
aF-0.04497759789228439
aF0.09627696871757507
aF-0.055357031524181366
aF0.08631730824708939
aF-0.062276653945446014
aa(lp235
F0.009959693998098373
aF-0.05189722031354904
aF0.026559174060821533
aF-0.04497759789228439
aF0.003319908631965518
aF-0.04497759789228439
aF0.01659948006272316
aF-0.062276653945446014
aF0.01659948006272316
aF-0.04497759789228439
aF0.019919387996196747
aF-0.062276653945446014
aF0.013279571197926998
aF-0.062276653945446014
aa(lp236
F0.06639792025089264
aF-0.06919629871845245
aF0.09295709431171417
aF-0.06919629871845245
aF0.5345032811164856
aF-0.41863757371902466
aa(lp237
F0.4593749940395355
aF0.4124999940395355
aF0.48750001192092896
aF0.40416666865348816
aF-0.0031250000465661287
aF-0.004166666883975267
aa(lp238
F0.039838746190071106
aF0.010379434563219547
aF0.05975813418626785
aF0.010379434563219547
aF0.019919387996196747
aF0.010379434563219547
aa(lp239
F0.07967749238014221
aF0.05881684273481369
aF0.013279571197926998
aF0.055357031524181366
aF0.04979844018816948
aF0.04497759789228439
aF0.04979844018816948
aF0.07957576215267181
aF0.06639792025089264
aF0.04497759789228439
aF0.03319896012544632
aF0.04497759789228439
aF0.03319896012544632
aF0.07265608757734299
aF0.06639792025089264
aF0.07265608757734299
aaaa(lp240
aa(lp241
F0.04537603259086609
aF0.005665415432304144
aF0.20002436637878418
aF-1.862645149230957e-09
aF-0.16778050363063812
aF0.12421201914548874
aa(lp242
F0.12758108973503113
aF0.05440528690814972
aF0.35866811871528625
aF-0.11299847066402435
aF0.1136462464928627
aF0.11720457673072815
aaI0
aaa(lp243
F1363685935.982
a(lp244
(lp245
I1363685940
aI799893
aa(lp246
(lp247
(lp248
I0
aF0.07469765841960907
aF-0.09514491260051727
aF0.2888309359550476
aF0.3010038733482361
aa(lp249
I-1
aF0.0
ag9
a(lp250
F0.11619635671377182
aF-0.1210935190320015
aF0.11619635671377182
aF-0.1210935190320015
aF0.14939531683921814
aF-0.1210935190320015
aF0.13279584050178528
aF-0.14531221985816956
aF0.13279584050178528
aF-0.1210935190320015
aF0.13943561911582947
aF-0.14877203106880188
aF0.1261560618877411
aF-0.14185239374637604
aa(lp251
F0.029879052191972733
aF-0.1383925825357437
aF0.04315865412354469
aF-0.1383925825357437
aF0.013279571197926998
aF-0.1383925825357437
aF0.029879052191972733
aF-0.15915147960186005
aF0.029879052191972733
aF-0.1383925825357437
aF0.03651886805891991
aF-0.15569165349006653
aF0.019919387996196747
aF-0.15915147960186005
aa(lp252
F0.10291679203510284
aF-0.15915147960186005
aF0.1261560618877411
aF-0.16261129081249237
aF0.5345032811164856
aF-0.41863757371902466
aa(lp253
F0.43437498807907104
aF0.30000001192092896
aF0.47187501192092896
aF0.2916666567325592
aF-0.0031250000465661287
aF-0.004166666883975267
aa(lp254
F0.09295709431171417
aF-0.05881684273481369
aF0.10623666644096375
aF-0.05881684273481369
aF0.07635761797428131
aF-0.05881684273481369
aa(lp255
F0.11287645250558853
aF-0.003459811443462968
aF0.03319896012544632
aF-0.013839269988238811
aF0.07635761797428131
aF-0.02421870455145836
aF0.07635761797428131
aF0.013839245773851871
aF0.09627696871757507
aF-0.02421870455145836
aF0.053118348121643066
aF-0.02421870455145836
aF0.053118348121643066
aF0.0
aF0.09627696871757507
aF0.0
aaaa(lp256
aa(lp257
F0.04537603259086609
aF0.005665415432304144
aF0.20002436637878418
aF-1.862645149230957e-09
aF-0.16778050363063812
aF0.12421201914548874
aa(lp258
F0.12749654054641724
aF0.054379887878894806
aF0.3586878478527069
aF-0.11284185945987701
aF0.11329122632741928
aF0.1174553632736206
aaI0
aaa(lp259
F1363685936.369
a(lp260
(lp261
I1363685941
aI300071
aa(lp262
(lp263
(lp264
I0
aF0.011619648896157742
aF0.06054677441716194
aF0.3286696970462799
aF0.34252163767814636
aa(lp265
I-1
aF0.0
ag9
a(lp266
F0.053118348121643066
aF0.02421868033707142
aF0.053118348121643066
aF0.02421868033707142
aF0.0829973965883255
aF0.013839245773851871
aF0.06971783190965652
aF0.003459811443462968
aF0.06971783190965652
aF0.02421868033707142
aF0.07967749238014221
aF0.003459811443462968
aF0.06307800859212875
aF0.003459811443462968
aa(lp267
F-0.039838775992393494
aF0.013839245773851871
aF-0.026559142395853996
aF0.010379434563219547
aF-0.06971783190965652
aF0.013839245773851871
aF-0.04647853225469589
aF-0.003459811443462968
aF-0.04647853225469589
aF0.013839245773851871
aF-0.03651886805891991
aF-0.003459811443462968
aF-0.059758104383945465
aF-0.003459811443462968
aa(lp268
F0.03651886805891991
aF-0.013839269988238811
aF0.06639792025089264
aF-0.013839269988238811
aF0.5345032811164856
aF-0.41863757371902466
aa(lp269
F0.5
aF0.4791666567325592
aF0.534375011920929
aF0.47083333134651184
aF-0.0031250000465661287
aF-0.004166666883975267
aa(lp270
F0.006639785598963499
aF0.09341500699520111
aF0.03319896012544632
aF0.09341500699520111
aF-0.019919387996196747
aF0.09341500699520111
aa(lp271
F0.056438226252794266
aF0.16953091323375702
aF-0.03651886805891991
aF0.15915147960186005
aF0.009959693998098373
aF0.14185240864753723
aF0.009959693998098373
aF0.18683001399040222
aF0.03319896012544632
aF0.14185240864753723
aF-0.009959662333130836
aF0.14185240864753723
aF-0.009959662333130836
aF0.16953091323375702
aF0.03319896012544632
aF0.17299072444438934
aaaa(lp272
aa(lp273
F0.04537603259086609
aF0.005665415432304144
aF0.20002436637878418
aF-1.862645149230957e-09
aF-0.16778050363063812
aF0.12421201914548874
aa(lp274
F0.1275978684425354
aF0.0543680377304554
aF0.3586534857749939
aF-0.11291701346635818
aF0.11369284242391586
aF0.11709122359752655
aaI0
aaa(lp275
F1363685936.744
a(lp276
(lp277
I1363685941
aI300071
aa(lp278
(lp279
(lp280
I0
aF0.011619648896157742
aF0.06054677441716194
aF0.3286696970462799
aF0.34252163767814636
aa(lp281
I-1
aF0.0
ag9
a(lp282
F0.053118348121643066
aF0.02421868033707142
aF0.053118348121643066
aF0.02421868033707142
aF0.0829973965883255
aF0.013839245773851871
aF0.06971783190965652
aF0.003459811443462968
aF0.06971783190965652
aF0.02421868033707142
aF0.07967749238014221
aF0.003459811443462968
aF0.06307800859212875
aF0.003459811443462968
aa(lp283
F-0.039838775992393494
aF0.013839245773851871
aF-0.026559142395853996
aF0.010379434563219547
aF-0.06971783190965652
aF0.013839245773851871
aF-0.04647853225469589
aF-0.003459811443462968
aF-0.04647853225469589
aF0.013839245773851871
aF-0.03651886805891991
aF-0.003459811443462968
aF-0.059758104383945465
aF-0.003459811443462968
aa(lp284
F0.03651886805891991
aF-0.013839269988238811
aF0.06639792025089264
aF-0.013839269988238811
aF0.5345032811164856
aF-0.41863757371902466
aa(lp285
F0.5
aF0.4791666567325592
aF0.534375011920929
aF0.47083333134651184
aF-0.0031250000465661287
aF-0.004166666883975267
aa(lp286
F0.006639785598963499
aF0.09341500699520111
aF0.03319896012544632
aF0.09341500699520111
aF-0.019919387996196747
aF0.09341500699520111
aa(lp287
F0.056438226252794266
aF0.16953091323375702
aF-0.03651886805891991
aF0.15915147960186005
aF0.009959693998098373
aF0.14185240864753723
aF0.009959693998098373
aF0.18683001399040222
aF0.03319896012544632
aF0.14185240864753723
aF-0.009959662333130836
aF0.14185240864753723
aF-0.009959662333130836
aF0.16953091323375702
aF0.03319896012544632
aF0.17299072444438934
aaaa(lp288
aa(lp289
F0.04537603259086609
aF0.005665415432304144
aF0.20002436637878418
aF-1.862645149230957e-09
aF-0.16778050363063812
aF0.12421201914548874
aa(lp290
F0.1275978684425354
aF0.0543680377304554
aF0.3586534857749939
aF-0.11291701346635818
aF0.11369284242391586
aF0.11709122359752655
aaI0
aaa(lp291
F1363685937.114
a(lp292
(lp293
I1363685941
aI766925
aa(lp294
(lp295
(lp296
I0
aF0.009959693998098373
aF0.04497759789228439
aF0.3784681260585785
aF0.394418865442276
aa(lp297
I-1
aF0.0
ag9
a(lp298
F0.06307800859212875
aF-0.010379434563219547
aF0.06307800859212875
aF-0.010379434563219547
aF0.10623666644096375
aF-0.003459811443462968
aF0.08631730824708939
aF-0.013839269988238811
aF0.08631730824708939
aF0.010379434563219547
aF0.09959688037633896
aF-0.013839269988238811
aF0.07635761797428131
aF-0.013839269988238811
aa(lp299
F-0.04979844018816948
aF-0.006919622886925936
aF-0.026559142395853996
aF-0.013839269988238811
aF-0.0829973965883255
aF-0.010379434563219547
aF-0.04979844018816948
aF-0.027678515762090683
aF-0.04979844018816948
aF-0.003459811443462968
aF-0.039838775992393494
aF-0.027678515762090683
aF-0.06307800859212875
aF-0.027678515762090683
aa(lp300
F0.053118348121643066
aF-0.04151778668165207
aF0.07635761797428131
aF-0.04151778668165207
aF0.5345032811164856
aF-0.41863757371902466
aa(lp301
F0.49687498807907104
aF0.4416666626930237
aF0.543749988079071
aF0.4375
aF-0.0031250000465661287
aF-0.004166666883975267
aa(lp302
F0.013279571197926998
aF0.08995519578456879
aF0.04315865412354469
aF0.08995519578456879
aF-0.01659948006272316
aF0.08995519578456879
aa(lp303
F0.07303770631551743
aF0.17299072444438934
aF-0.039838775992393494
aF0.16261129081249237
aF0.019919387996196747
aF0.14877203106880188
aF0.019919387996196747
aF0.19374963641166687
aF0.053118348121643066
aF0.14877203106880188
aF-0.009959662333130836
aF0.14877203106880188
aF-0.009959662333130836
aF0.179910346865654
aF0.053118348121643066
aF0.18683001399040222
aaaa(lp304
aa(lp305
F0.04537603259086609
aF0.005665415432304144
aF0.20002436637878418
aF-1.862645149230957e-09
aF-0.16778050363063812
aF0.12421201914548874
aa(lp306
F0.12754172086715698
aF0.054395612329244614
aF0.3586861491203308
aF-0.11288273334503174
aF0.113474041223526
aF0.11746671050786972
aaI0
aaa(lp307
F1363685937.489
a(lp308
(lp309
I1363685942
aI233736
aa(lp310
(lp311
(lp312
I0
aF-0.018259402364492416
aF0.03286823257803917
aF0.38842782378196716
aF0.40479832887649536
aa(lp313
I-1
aF0.0
ag9
a(lp314
F0.03651886805891991
aF0.003459811443462968
aF0.03651886805891991
aF0.003459811443462968
aF0.08631730824708939
aF-0.010379434563219547
aF0.05975813418626785
aF-0.031138326972723007
aF0.05975813418626785
aF-0.003459811443462968
aF0.07303770631551743
aF-0.02421870455145836
aF0.04979844018816948
aF-0.031138326972723007
aa(lp315
F-0.07967749238014221
aF-0.02421870455145836
aF-0.059758104383945465
aF-0.031138326972723007
aF-0.10291679203510284
aF-0.031138326972723007
aF-0.07635758072137833
aF-0.04151778668165207
aF-0.07635758072137833
aF-0.01729908213019371
aF-0.06639792025089264
aF-0.04151778668165207
aF-0.08963721990585327
aF-0.04151778668165207
aa(lp316
F0.01659948006272316
aF-0.055357031524181366
aF0.04979844018816948
aF-0.055357031524181366
aF0.5345032811164856
aF-0.41863757371902466
aa(lp317
F0.5249999761581421
aF0.42500001192092896
aF0.5718749761581421
aF0.4166666567325592
aF-0.0031250000465661287
aF-0.004166666883975267
aa(lp318
F-0.01659948006272316
aF0.07957576215267181
aF0.013279571197926998
aF0.07957576215267181
aF-0.04979844018816948
aF0.07957576215267181
aa(lp319
F0.04647853225469589
aF0.16953091323375702
aF-0.07635758072137833
aF0.15569165349006653
aF-0.013279571197926998
aF0.13493278622627258
aF-0.013279571197926998
aF0.18683001399040222
aF0.01659948006272316
aF0.13493278622627258
aF-0.04647853225469589
aF0.13493278622627258
aF-0.04647853225469589
aF0.16953091323375702
aF0.01659948006272316
aF0.17645053565502167
aaaa(lp320
aa(lp321
F0.04537603259086609
aF0.005665415432304144
aF0.20002436637878418
aF-1.862645149230957e-09
aF-0.16778050363063812
aF0.12421201914548874
aa(lp322
F0.12756240367889404
aF0.054390400648117065
aF0.3586769700050354
aF-0.11289896816015244
aF0.11355584114789963
aF0.11736364662647247
aaI0
aaa(lp323
F1363685937.85
a(lp324
(lp325
I1363685942
aI800614
aa(lp326
(lp327
(lp328
I0
aF0.009959693998098373
aF-0.09687481820583344
aF0.3585487902164459
aF0.37365996837615967
aa(lp329
I-1
aF0.0
ag9
a(lp330
F0.05975813418626785
aF-0.1349327713251114
aF0.05975813418626785
aF-0.1349327713251114
aF0.10955657809972763
aF-0.1349327713251114
aF0.08631730824708939
aF-0.1522318422794342
aF0.08631730824708939
aF-0.1349327713251114
aF0.09627696871757507
aF-0.15569165349006653
aF0.07635761797428131
aF-0.1522318422794342
aa(lp331
F-0.043158624321222305
aF-0.1522318422794342
aF-0.03319896012544632
aF-0.1522318422794342
aF-0.07303773611783981
aF-0.1522318422794342
aF-0.04979844018816948
aF-0.1695309281349182
aF-0.04979844018816948
aF-0.14531221985816956
aF-0.039838775992393494
aF-0.1695309281349182
aF-0.059758104383945465
aF-0.17299073934555054
aa(lp332
F0.04979844018816948
aF-0.17991036176681519
aF0.07303770631551743
aF-0.18682998418807983
aF0.5345032811164856
aF-0.41863757371902466
aa(lp333
F0.49687498807907104
aF0.2750000059604645
aF0.5406249761581421
aF0.26249998807907104
aF-0.0031250000465661287
aF-0.004166666883975267
aa(lp334
F0.01659948006272316
aF-0.06919629871845245
aF0.04647853225469589
aF-0.06919629871845245
aF-0.009959662333130836
aF-0.06919629871845245
aa(lp335
F0.06639792025089264
aF0.013839245773851871
aF-0.03319896012544632
aF-0.003459811443462968
aF0.019919387996196747
aF-0.013839269988238811
aF0.019919387996196747
aF0.02421868033707142
aF0.04979844018816948
aF-0.013839269988238811
aF-0.006639817263931036
aF-0.013839269988238811
aF-0.006639817263931036
aF0.013839245773851871
aF0.04979844018816948
aF0.02421868033707142
aaaa(lp336
aa(lp337
F0.04537603259086609
aF0.005665415432304144
aF0.20002436637878418
aF-1.862645149230957e-09
aF-0.16778050363063812
aF0.12421201914548874
aa(lp338
F0.12754002213478088
aF0.054390955716371536
aF0.35868388414382935
aF-0.11287753283977509
aF0.11346617341041565
aF0.11743904650211334
aaI0
aaa(lp339
F1363685938.216
a(lp340
(lp341
I1363685942
aI800614
aa(lp342
(lp343
(lp344
I0
aF0.009959693998098373
aF-0.09687481820583344
aF0.3585487902164459
aF0.37365996837615967
aa(lp345
I-1
aF0.0
ag9
a(lp346
F0.05975813418626785
aF-0.1349327713251114
aF0.05975813418626785
aF-0.1349327713251114
aF0.10955657809972763
aF-0.1349327713251114
aF0.08631730824708939
aF-0.1522318422794342
aF0.08631730824708939
aF-0.1349327713251114
aF0.09627696871757507
aF-0.15569165349006653
aF0.07635761797428131
aF-0.1522318422794342
aa(lp347
F-0.043158624321222305
aF-0.1522318422794342
aF-0.03319896012544632
aF-0.1522318422794342
aF-0.07303773611783981
aF-0.1522318422794342
aF-0.04979844018816948
aF-0.1695309281349182
aF-0.04979844018816948
aF-0.14531221985816956
aF-0.039838775992393494
aF-0.1695309281349182
aF-0.059758104383945465
aF-0.17299073934555054
aa(lp348
F0.04979844018816948
aF-0.17991036176681519
aF0.07303770631551743
aF-0.18682998418807983
aF0.5345032811164856
aF-0.41863757371902466
aa(lp349
F0.49687498807907104
aF0.2750000059604645
aF0.5406249761581421
aF0.26249998807907104
aF-0.0031250000465661287
aF-0.004166666883975267
aa(lp350
F0.01659948006272316
aF-0.06919629871845245
aF0.04647853225469589
aF-0.06919629871845245
aF-0.009959662333130836
aF-0.06919629871845245
aa(lp351
F0.06639792025089264
aF0.013839245773851871
aF-0.03319896012544632
aF-0.003459811443462968
aF0.019919387996196747
aF-0.013839269988238811
aF0.019919387996196747
aF0.02421868033707142
aF0.04979844018816948
aF-0.013839269988238811
aF-0.006639817263931036
aF-0.013839269988238811
aF-0.006639817263931036
aF0.013839245773851871
aF0.04979844018816948
aF0.02421868033707142
aaaa(lp352
aa(lp353
F0.04537603259086609
aF0.005665415432304144
aF0.20002436637878418
aF-1.862645149230957e-09
aF-0.16778050363063812
aF0.12421201914548874
aa(lp354
F0.12754002213478088
aF0.054390955716371536
aF0.35868388414382935
aF-0.11287753283977509
aF0.11346617341041565
aF0.11743904650211334
aaI0
aaa(lp355
F1363685938.571
a(lp356
(lp357
I1363685943
aI334135
aa(lp358
(lp359
(lp360
I0
aF0.044818609952926636
aF-0.12628324329853058
aF0.34858909249305725
aF0.3632805347442627
aa(lp361
I-1
aF0.0
ag9
a(lp362
F0.09295709431171417
aF-0.17645055055618286
aF0.09295709431171417
aF-0.17645055055618286
aF0.1228361427783966
aF-0.1660711020231247
aF0.10955657809972763
aF-0.17991036176681519
aF0.10955657809972763
aF-0.1660711020231247
aF0.1195162683725357
aF-0.17645055055618286
aF0.10291679203510284
aF-0.17991036176681519
aa(lp363
F-0.009959662333130836
aF-0.17645055055618286
aF-0.0
aF-0.17645055055618286
aF-0.029879052191972733
aF-0.17645055055618286
aF-0.01659948006272316
aF-0.1972094476222992
aF-0.01659948006272316
aF-0.17645055055618286
aF-0.003319908631965518
aF-0.18682998418807983
aF-0.019919387996196747
aF-0.1972094476222992
aa(lp364
F0.07635761797428131
aF-0.1972094476222992
aF0.10623666644096375
aF-0.1972094476222992
aF0.5345032811164856
aF-0.41863757371902466
aa(lp365
F0.4593749940395355
aF0.25
aF0.5062500238418579
aF0.25
aF-0.0031250000465661287
aF-0.004166666883975267
aa(lp366
F0.04979844018816948
aF-0.09341500699520111
aF0.07635761797428131
aF-0.09341500699520111
aF0.019919387996196747
aF-0.09341500699520111
aa(lp367
F0.08963718265295029
aF-0.020758893340826035
aF-0.0
aF-0.031138326972723007
aF0.04647853225469589
aF-0.04497759789228439
aF0.04647853225469589
aF-0.003459811443462968
aF0.06639792025089264
aF-0.04497759789228439
aF0.026559174060821533
aF-0.04497759789228439
aF0.026559174060821533
aF-0.013839269988238811
aF0.06639792025089264
aF-0.013839269988238811
aaaa(lp368
aa(lp369
F0.04537603259086609
aF0.005665415432304144
aF0.20002436637878418
aF-1.862645149230957e-09
aF-0.16778050363063812
aF0.12421201914548874
aa(lp370
F0.1275457739830017
aF0.0543697327375412
aF0.3586649000644684
aF-0.11289630830287933
aF0.11348898708820343
aF0.11718481779098511
aaI0
aaa(lp371
F1363685938.933
a(lp372
(lp373
I1363685943
aI734278
aa(lp374
(lp375
(lp376
I0
aF0.09793692827224731
aF-0.23007768392562866
aF0.2888309359550476
aF0.3010038733482361
aa(lp377
I-1
aF0.0
ag9
a(lp378
F0.13943561911582947
aF-0.2560262978076935
aF0.13943561911582947
aF-0.2560262978076935
aF0.16931471228599548
aF-0.2560262978076935
aF0.15603511035442352
aF-0.28024500608444214
aF0.15603511035442352
aF-0.2560262978076935
aF0.165994793176651
aF-0.28370481729507446
aF0.14939531683921814
aF-0.2733253538608551
aa(lp379
F0.053118348121643066
aF-0.2733253538608551
aF0.06639792025089264
aF-0.2733253538608551
aF0.03651886805891991
aF-0.2767851650714874
aF0.053118348121643066
aF-0.2906244397163391
aF0.053118348121643066
aF-0.2733253538608551
aF0.06307800859212875
aF-0.2906244397163391
aF0.04647853225469589
aF-0.29408425092697144
aa(lp380
F0.129475936293602
aF-0.29408425092697144
aF0.14607541263103485
aF-0.29408425092697144
aF0.5345032811164856
aF-0.41863757371902466
aa(lp381
F0.40937501192092896
aF0.13750000298023224
aF0.44999998807907104
aF0.13750000298023224
aF-0.0031250000465661287
aF-0.004166666883975267
aa(lp382
F0.11287645250558853
aF-0.20412907004356384
aF0.1228361427783966
aF-0.20412907004356384
aF0.09959688037633896
aF-0.20412907004356384
aa(lp383
F0.1261560618877411
aF-0.14877203106880188
aF0.056438226252794266
aF-0.1522318422794342
aF0.09627696871757507
aF-0.1660711020231247
aF0.09627696871757507
aF-0.12455333024263382
aF0.11287645250558853
aF-0.1660711020231247
aF0.07967749238014221
aF-0.1660711020231247
aF0.07967749238014221
aF-0.1349327713251114
aF0.11287645250558853
aF-0.1349327713251114
aaaa(lp384
aa(lp385
F0.04537603259086609
aF0.005665415432304144
aF0.20002436637878418
aF-1.862645149230957e-09
aF-0.16778050363063812
aF0.12421201914548874
aa(lp386
F0.127436101436615
aF0.05437861382961273
aF0.3586924076080322
aF-0.11285495012998581
aF0.11306055635213852
aF0.11742536723613739
aaI0
aaa(lp387
F1363685939.296
a(lp388
(lp389
I1363685943
aI734278
aa(lp390
(lp391
(lp392
I0
aF0.09793692827224731
aF-0.23007768392562866
aF0.2888309359550476
aF0.3010038733482361
aa(lp393
I-1
aF0.0
ag9
a(lp394
F0.13943561911582947
aF-0.2560262978076935
aF0.13943561911582947
aF-0.2560262978076935
aF0.16931471228599548
aF-0.2560262978076935
aF0.15603511035442352
aF-0.28024500608444214
aF0.15603511035442352
aF-0.2560262978076935
aF0.165994793176651
aF-0.28370481729507446
aF0.14939531683921814
aF-0.2733253538608551
aa(lp395
F0.053118348121643066
aF-0.2733253538608551
aF0.06639792025089264
aF-0.2733253538608551
aF0.03651886805891991
aF-0.2767851650714874
aF0.053118348121643066
aF-0.2906244397163391
aF0.053118348121643066
aF-0.2733253538608551
aF0.06307800859212875
aF-0.2906244397163391
aF0.04647853225469589
aF-0.29408425092697144
aa(lp396
F0.129475936293602
aF-0.29408425092697144
aF0.14607541263103485
aF-0.29408425092697144
aF0.5345032811164856
aF-0.41863757371902466
aa(lp397
F0.40937501192092896
aF0.13750000298023224
aF0.44999998807907104
aF0.13750000298023224
aF-0.0031250000465661287
aF-0.004166666883975267
aa(lp398
F0.11287645250558853
aF-0.20412907004356384
aF0.1228361427783966
aF-0.20412907004356384
aF0.09959688037633896
aF-0.20412907004356384
aa(lp399
F0.1261560618877411
aF-0.14877203106880188
aF0.056438226252794266
aF-0.1522318422794342
aF0.09627696871757507
aF-0.1660711020231247
aF0.09627696871757507
aF-0.12455333024263382
aF0.11287645250558853
aF-0.1660711020231247
aF0.07967749238014221
aF-0.1660711020231247
aF0.07967749238014221
aF-0.1349327713251114
aF0.11287645250558853
aF-0.1349327713251114
aaaa(lp400
aa(lp401
F0.04537603259086609
aF0.005665415432304144
aF0.20002436637878418
aF-1.862645149230957e-09
aF-0.16778050363063812
aF0.12421201914548874
aa(lp402
F0.127436101436615
aF0.05437861382961273
aF0.3586924076080322
aF-0.11285495012998581
aF0.11306055635213852
aF0.11742536723613739
aaI0
aaa(lp403
F1363685939.652
a(lp404
(lp405
I1363685944
aI367836
aa(lp406
(lp407
(lp408
I0
aF0.004979831166565418
aF0.09514489024877548
aF0.26891160011291504
aF0.28024500608444214
aa(lp409
I-1
aF0.0
ag9
a(lp410
F0.039838746190071106
aF0.055357031524181366
aF0.039838746190071106
aF0.055357031524181366
aF0.06971783190965652
aF0.055357031524181366
aF0.056438226252794266
aF0.04843740910291672
aF0.056438226252794266
aF0.062276653945446014
aF0.06639792025089264
aF0.05189722031354904
aF0.04979844018816948
aF0.04843740910291672
aa(lp411
F-0.039838775992393494
aF0.05881684273481369
aF-0.023239297792315483
aF0.062276653945446014
aF-0.04979844018816948
aF0.05189722031354904
aF-0.03319896012544632
aF0.04151778668165207
aF-0.03319896012544632
aF0.062276653945446014
aF-0.026559142395853996
aF0.04151778668165207
aF-0.043158624321222305
aF0.04151778668165207
aa(lp412
F0.026559174060821533
aF0.038057975471019745
aF0.04647853225469589
aF0.03459816426038742
aF0.5345032811164856
aF-0.41863757371902466
aa(lp413
F0.503125011920929
aF0.5416666865348816
aF0.534375011920929
aF0.5375000238418579
aF-0.0031250000465661287
aF-0.004166666883975267
aa(lp414
F-0.006639817263931036
aF0.12455330789089203
aF-0.0
aF0.12455330789089203
aF-0.019919387996196747
aF0.12455330789089203
aa(lp415
F0.04315865412354469
aF0.179910346865654
aF-0.03319896012544632
aF0.17645053565502167
aF0.006639785598963499
aF0.16261129081249237
aF0.006639785598963499
aF0.19028982520103455
aF0.026559174060821533
aF0.16261129081249237
aF-0.013279571197926998
aF0.16261129081249237
aF-0.013279571197926998
aF0.1833702027797699
aF0.026559174060821533
aF0.1833702027797699
aaaa(lp416
aa(lp417
F0.04537603259086609
aF0.005665415432304144
aF0.20002436637878418
aF-1.862645149230957e-09
aF-0.16778050363063812
aF0.12421201914548874
aa(lp418
F0.1275455355644226
aF0.05439464747905731
aF0.3586844205856323
aF-0.11288581788539886
aF0.11348952353000641
aF0.11744724959135056
aaI0
aaa(lp419
F1363685940.015
a(lp420
(lp421
I1363685944
aI801325
aa(lp422
(lp423
(lp424
I0
aF0.018259434029459953
aF0.10898417979478836
aF0.2489922046661377
aF0.2594861090183258
aa(lp425
I-1
aF0.0
ag9
a(lp426
F0.04979844018816948
aF0.07957576215267181
aF0.04979844018816948
aF0.07957576215267181
aF0.07635761797428131
aF0.07611589878797531
aF0.06639792025089264
aF0.06919627636671066
aF0.06639792025089264
aF0.08649538457393646
aF0.07303770631551743
aF0.06919627636671066
aF0.056438226252794266
aF0.06919627636671066
aa(lp427
F-0.023239297792315483
aF0.07611589878797531
aF-0.013279571197926998
aF0.07957576215267181
aF-0.03319896012544632
aF0.06919627636671066
aF-0.023239297792315483
aF0.062276653945446014
aF-0.023239297792315483
aF0.07957576215267181
aF-0.01659948006272316
aF0.062276653945446014
aF-0.026559142395853996
aF0.062276653945446014
aa(lp428
F0.03651886805891991
aF0.05881684273481369
aF0.056438226252794266
aF0.05881684273481369
aF0.5345032811164856
aF-0.41863757371902466
aa(lp429
F0.484375
aF0.5708333253860474
aF0.5218750238418579
aF0.5625
aF-0.0031250000465661287
aF-0.004166666883975267
aa(lp430
F0.01659948006272316
aF0.14185240864753723
aF0.03651886805891991
aF0.14185240864753723
aF-0.0
aF0.14185240864753723
aa(lp431
F0.053118348121643066
aF0.1972094476222992
aF-0.01659948006272316
aF0.18683001399040222
aF0.019919387996196747
aF0.179910346865654
aF0.019919387996196747
aF0.2110486924648285
aF0.03651886805891991
aF0.179910346865654
aF0.003319908631965518
aF0.179910346865654
aF0.003319908631965518
aF0.20066925883293152
aF0.03651886805891991
aF0.20066925883293152
aaaa(lp432
aa(lp433
F0.04537603259086609
aF0.005665415432304144
aF0.20002436637878418
aF-1.862645149230957e-09
aF-0.16778050363063812
aF0.12421201914548874
aa(lp434
F0.1275719404220581
aF0.054415393620729446
aF0.3586726188659668
aF-0.11302056908607483
aF0.11361637711524963
aF0.11723662912845612
aaI0
aaa(lp435
F1363685940.406
a(lp436
(lp437
I1363685945
aI301509
aa(lp438
(lp439
(lp440
I0
aF0.006639785598963499
aF0.07265608757734299
aF0.21911312639713287
aF0.2283477783203125
aa(lp441
I-1
aF0.0
ag9
a(lp442
F0.039838746190071106
aF0.04151778668165207
aF0.039838746190071106
aF0.04151778668165207
aF0.06307800859212875
aF0.04151778668165207
aF0.04979844018816948
aF0.038057975471019745
aF0.04979844018816948
aF0.04843740910291672
aF0.05975813418626785
aF0.038057975471019745
aF0.04647853225469589
aF0.038057975471019745
aa(lp443
F-0.026559142395853996
aF0.04151778668165207
aF-0.013279571197926998
aF0.038057975471019745
aF-0.039838775992393494
aF0.04151778668165207
aF-0.026559142395853996
aF0.031138351187109947
aF-0.026559142395853996
aF0.04497759789228439
aF-0.019919387996196747
aF0.031138351187109947
aF-0.03319896012544632
aF0.031138351187109947
aa(lp444
F0.026559174060821533
aF0.027678539976477623
aF0.04315865412354469
aF0.02421868033707142
aF0.5345032811164856
aF-0.41863757371902466
aa(lp445
F0.4906249940395355
aF0.5291666388511658
aF0.5249999761581421
aF0.5249999761581421
aF-0.0031250000465661287
aF-0.004166666883975267
aa(lp446
F0.009959693998098373
aF0.09341500699520111
aF0.029879052191972733
aF0.09341500699520111
aF-0.006639817263931036
aF0.09341500699520111
aa(lp447
F0.039838746190071106
aF0.1383925974369049
aF-0.019919387996196747
aF0.13493278622627258
aF0.013279571197926998
aF0.12455330789089203
aF0.013279571197926998
aF0.1522318422794342
aF0.026559174060821533
aF0.12455330789089203
aF-0.0
aF0.12455330789089203
aF-0.0
aF0.14185240864753723
aF0.026559174060821533
aF0.14531221985816956
aaaa(lp448
aa(lp449
F0.04537603259086609
aF0.005665415432304144
aF0.20002436637878418
aF-1.862645149230957e-09
aF-0.16778050363063812
aF0.12421201914548874
aa(lp450
F0.1275634467601776
aF0.054390691220760345
aF0.35867682099342346
aF-0.11290054023265839
aF0.11356049031019211
aF0.11736127734184265
aaI0
aaa(lp451
F1363685940.772
a(lp452
(lp453
I1363685945
aI768333
aa(lp454
(lp455
(lp456
I0
aF0.014939526095986366
aF0.07784582674503326
aF0.2091534584760666
aF0.21796831488609314
aa(lp457
I-1
aF0.0
ag9
a(lp458
F0.039838746190071106
aF0.04843740910291672
aF0.039838746190071106
aF0.04843740910291672
aF0.06307800859212875
aF0.05189722031354904
aF0.04979844018816948
aF0.04151778668165207
aF0.04979844018816948
aF0.05189722031354904
aF0.05975813418626785
aF0.04151778668165207
aF0.04647853225469589
aF0.038057975471019745
aa(lp459
F-0.01659948006272316
aF0.04497759789228439
aF-0.006639817263931036
aF0.038057975471019745
aF-0.026559142395853996
aF0.03459816426038742
aF-0.01659948006272316
aF0.031138351187109947
aF-0.01659948006272316
aF0.04497759789228439
aF-0.009959662333130836
aF0.031138351187109947
aF-0.019919387996196747
aF0.031138351187109947
aa(lp460
F0.03651886805891991
aF0.027678539976477623
aF0.04979844018816948
aF0.027678539976477623
aF0.5345032811164856
aF-0.41863757371902466
aa(lp461
F0.484375
aF0.5291666388511658
aF0.515625
aF0.5249999761581421
aF-0.0031250000465661287
aF-0.004166666883975267
aa(lp462
F0.013279571197926998
aF0.09341500699520111
aF0.029879052191972733
aF0.09341500699520111
aF-0.003319908631965518
aF0.09341500699520111
aa(lp463
F0.04647853225469589
aF0.14185240864753723
aF-0.013279571197926998
aF0.13493278622627258
aF0.019919387996196747
aF0.12455330789089203
aF0.019919387996196747
aF0.1522318422794342
aF0.03319896012544632
aF0.12455330789089203
aF0.006639785598963499
aF0.12455330789089203
aF0.006639785598963499
aF0.14531221985816956
aF0.03319896012544632
aF0.14531221985816956
aaaa(lp464
aa(lp465
F0.04537603259086609
aF0.005665415432304144
aF0.20002436637878418
aF-1.862645149230957e-09
aF-0.16778050363063812
aF0.12421201914548874
aa(lp466
F0.12750351428985596
aF0.05437543988227844
aF0.3586857318878174
aF-0.11283034831285477
aF0.1133158728480339
aF0.11744511127471924
aaI0
aaa(lp467
F1363685941.121
a(lp468
(lp469
I1363685945
aI768333
aa(lp470
(lp471
(lp472
I0
aF0.014939526095986366
aF0.07784582674503326
aF0.2091534584760666
aF0.21796831488609314
aa(lp473
I-1
aF0.0
ag9
a(lp474
F0.039838746190071106
aF0.04843740910291672
aF0.039838746190071106
aF0.04843740910291672
aF0.06307800859212875
aF0.05189722031354904
aF0.04979844018816948
aF0.04151778668165207
aF0.04979844018816948
aF0.05189722031354904
aF0.05975813418626785
aF0.04151778668165207
aF0.04647853225469589
aF0.038057975471019745
aa(lp475
F-0.01659948006272316
aF0.04497759789228439
aF-0.006639817263931036
aF0.038057975471019745
aF-0.026559142395853996
aF0.03459816426038742
aF-0.01659948006272316
aF0.031138351187109947
aF-0.01659948006272316
aF0.04497759789228439
aF-0.009959662333130836
aF0.031138351187109947
aF-0.019919387996196747
aF0.031138351187109947
aa(lp476
F0.03651886805891991
aF0.027678539976477623
aF0.04979844018816948
aF0.027678539976477623
aF0.5345032811164856
aF-0.41863757371902466
aa(lp477
F0.484375
aF0.5291666388511658
aF0.515625
aF0.5249999761581421
aF-0.0031250000465661287
aF-0.004166666883975267
aa(lp478
F0.013279571197926998
aF0.09341500699520111
aF0.029879052191972733
aF0.09341500699520111
aF-0.003319908631965518
aF0.09341500699520111
aa(lp479
F0.04647853225469589
aF0.14185240864753723
aF-0.013279571197926998
aF0.13493278622627258
aF0.019919387996196747
aF0.12455330789089203
aF0.019919387996196747
aF0.1522318422794342
aF0.03319896012544632
aF0.12455330789089203
aF0.006639785598963499
aF0.12455330789089203
aF0.006639785598963499
aF0.14531221985816956
aF0.03319896012544632
aF0.14531221985816956
aaaa(lp480
aa(lp481
F0.04537603259086609
aF0.005665415432304144
aF0.20002436637878418
aF-1.862645149230957e-09
aF-0.16778050363063812
aF0.12421201914548874
aa(lp482
F0.12750351428985596
aF0.05437543988227844
aF0.3586857318878174
aF-0.11283034831285477
aF0.1133158728480339
aF0.11744511127471924
aaI0
aaa(lp483
F1363685941.498
a(lp484
(lp485
I1363685946
aI301860
aa(lp486
(lp487
(lp488
I0
aF0.021579312160611153
aF-0.1297430545091629
aF0.22907282412052155
aF0.23872721195220947
aa(lp489
I-1
aF0.0
ag9
a(lp490
F0.5345032811164856
aF-0.41863757371902466
aF0.5345032811164856
aF-0.41863757371902466
aF0.5345032811164856
aF-0.41863757371902466
aF0.5345032811164856
aF-0.41863757371902466
aF0.5345032811164856
aF-0.41863757371902466
aF0.5345032811164856
aF-0.41863757371902466
aF0.5345032811164856
aF-0.41863757371902466
aa(lp491
F-0.01659948006272316
aF-0.16261129081249237
aF0.5345032811164856
aF-0.41863757371902466
aF0.5345032811164856
aF-0.41863757371902466
aF0.5345032811164856
aF-0.41863757371902466
aF0.5345032811164856
aF-0.41863757371902466
aF0.5345032811164856
aF-0.41863757371902466
aF0.5345032811164856
aF-0.41863757371902466
aa(lp492
F0.5345032811164856
aF-0.41863757371902466
aF0.5345032811164856
aF-0.41863757371902466
aF0.5345032811164856
aF-0.41863757371902466
aa(lp493
F-0.0031250000465661287
aF-0.004166666883975267
aF-0.0031250000465661287
aF-0.004166666883975267
aF-0.0031250000465661287
aF-0.004166666883975267
aa(lp494
F0.5345032811164856
aF-0.41863757371902466
aF0.5345032811164856
aF-0.41863757371902466
aF0.5345032811164856
aF-0.41863757371902466
aa(lp495
F0.5345032811164856
aF-0.41863757371902466
aF0.5345032811164856
aF-0.41863757371902466
aF0.5345032811164856
aF-0.41863757371902466
aF0.5345032811164856
aF-0.41863757371902466
aF0.5345032811164856
aF-0.41863757371902466
aF0.5345032811164856
aF-0.41863757371902466
aF0.5345032811164856
aF-0.41863757371902466
aF0.5345032811164856
aF-0.41863757371902466
aaaa(lp496
aa(lp497
F0.04537603259086609
aF0.005665415432304144
aF0.20002436637878418
aF-1.862645149230957e-09
aF-0.16778050363063812
aF0.12421201914548874
aa(lp498
F0.12753328680992126
aF0.054415263235569
aF0.3586850166320801
aF-0.11297672986984253
aF0.11346002668142319
aF0.11737664043903351
aaI0
aaaa.