(lp0
F1363685030.869
a(lp1
(lp2
F1363685032.976
a(lp3
(lp4
I1363685037
aI976349
aa(lp5
(lp6
(lp7
I0
aF-0.07469765841960907
aF-0.06746639311313629
aF0.3286696970462799
aF0.34252163767814636
aa(lp8
I-1
aF0.0
aS''
p9
a(lp10
F-0.029879052191972733
aF-0.10033462941646576
aF-0.029879052191972733
aF-0.10033462941646576
aF0.009959693998098373
aF-0.11071406304836273
aF-0.009959662333130836
aF-0.1210935190320015
aF-0.009959662333130836
aF-0.10033462941646576
aF-0.0
aF-0.1210935190320015
aF-0.019919387996196747
aF-0.1210935190320015
aa(lp11
F-0.1261560171842575
aF-0.11417386680841446
aF-0.10955654084682465
aF-0.1210935190320015
aF-0.13943566381931305
aF-0.1210935190320015
aF-0.1261560171842575
aF-0.13147296011447906
aF-0.1261560171842575
aF-0.11071406304836273
aF-0.11619635671377182
aF-0.13147296011447906
aF-0.129475936293602
aF-0.13147296011447906
aa(lp12
F-0.04647853225469589
aF-0.14185239374637604
aF-0.019919387996196747
aF-0.14185239374637604
aF0.5345032811164856
aF-0.41863757371902466
aa(lp13
F0.581250011920929
aF0.32499998807907104
aF0.6187499761581421
aF0.3166666626930237
aF-0.0031250000465661287
aF-0.004166666883975267
aa(lp14
F-0.06971783190965652
aF-0.027678515762090683
aF-0.039838775992393494
aF-0.027678515762090683
aF-0.09627696871757507
aF-0.027678515762090683
aa(lp15
F-0.029879052191972733
aF0.04151778668165207
aF-0.11619635671377182
aF0.03459816426038742
aF-0.06971783190965652
aF0.020758869126439095
aF-0.06971783190965652
aF0.062276653945446014
aF-0.04979844018816948
aF0.020758869126439095
aF-0.08963721990585327
aF0.020758869126439095
aF-0.08963721990585327
aF0.05189722031354904
aF-0.04979844018816948
aF0.05189722031354904
aaaa(lp16
aa(lp17
F0.05849871411919594
aF0.004944802261888981
aF0.1901424527168274
aF-2.3283064365386963e-10
aF0.02090156264603138
aF0.08432792872190475
aa(lp18
F0.10870269685983658
aF-0.055363789200782776
aF0.3516773581504822
aF0.20538555085659027
aF0.16149172186851501
aF0.0944136381149292
aaI0
aaa(lp19
F1363685033.245
a(lp20
(lp21
I1363685037
aI976349
aa(lp22
(lp23
(lp24
I0
aF-0.07469765841960907
aF-0.06746639311313629
aF0.3286696970462799
aF0.34252163767814636
aa(lp25
I-1
aF0.0
ag9
a(lp26
F-0.029879052191972733
aF-0.10033462941646576
aF-0.029879052191972733
aF-0.10033462941646576
aF0.009959693998098373
aF-0.11071406304836273
aF-0.009959662333130836
aF-0.1210935190320015
aF-0.009959662333130836
aF-0.10033462941646576
aF-0.0
aF-0.1210935190320015
aF-0.019919387996196747
aF-0.1210935190320015
aa(lp27
F-0.1261560171842575
aF-0.11417386680841446
aF-0.10955654084682465
aF-0.1210935190320015
aF-0.13943566381931305
aF-0.1210935190320015
aF-0.1261560171842575
aF-0.13147296011447906
aF-0.1261560171842575
aF-0.11071406304836273
aF-0.11619635671377182
aF-0.13147296011447906
aF-0.129475936293602
aF-0.13147296011447906
aa(lp28
F-0.04647853225469589
aF-0.14185239374637604
aF-0.019919387996196747
aF-0.14185239374637604
aF0.5345032811164856
aF-0.41863757371902466
aa(lp29
F0.581250011920929
aF0.32499998807907104
aF0.6187499761581421
aF0.3166666626930237
aF-0.0031250000465661287
aF-0.004166666883975267
aa(lp30
F-0.06971783190965652
aF-0.027678515762090683
aF-0.039838775992393494
aF-0.027678515762090683
aF-0.09627696871757507
aF-0.027678515762090683
aa(lp31
F-0.029879052191972733
aF0.04151778668165207
aF-0.11619635671377182
aF0.03459816426038742
aF-0.06971783190965652
aF0.020758869126439095
aF-0.06971783190965652
aF0.062276653945446014
aF-0.04979844018816948
aF0.020758869126439095
aF-0.08963721990585327
aF0.020758869126439095
aF-0.08963721990585327
aF0.05189722031354904
aF-0.04979844018816948
aF0.05189722031354904
aaaa(lp32
aa(lp33
F0.05849871411919594
aF0.004944802261888981
aF0.1901424527168274
aF-2.3283064365386963e-10
aF0.02090156264603138
aF0.08432792872190475
aa(lp34
F0.10870269685983658
aF-0.055363789200782776
aF0.3516773581504822
aF0.20538555085659027
aF0.16149172186851501
aF0.0944136381149292
aaI0
aaa(lp35
F1363685033.576
a(lp36
(lp37
I1363685038
aI476534
aa(lp38
(lp39
(lp40
I0
aF-0.03651886805891991
aF-0.003459811443462968
aF0.27887123823165894
aF0.2906244397163391
aa(lp41
I-1
aF0.0
ag9
a(lp42
F0.003319908631965518
aF-0.04151778668165207
aF0.003319908631965518
aF-0.04151778668165207
aF0.029879052191972733
aF-0.04151778668165207
aF0.01659948006272316
aF-0.04497759789228439
aF0.01659948006272316
aF-0.031138326972723007
aF0.023239266127347946
aF-0.04843740910291672
aF0.013279571197926998
aF-0.04497759789228439
aa(lp43
F-0.07967749238014221
aF-0.04151778668165207
aF-0.059758104383945465
aF-0.03459813818335533
aF-0.09959688037633896
aF-0.04151778668165207
aF-0.07635758072137833
aF-0.055357031524181366
aF-0.07635758072137833
aF-0.04151778668165207
aF-0.06971783190965652
aF-0.055357031524181366
aF-0.08631730824708939
aF-0.05881684273481369
aa(lp44
F-0.013279571197926998
aF-0.062276653945446014
aF0.013279571197926998
aF-0.062276653945446014
aF0.5345032811164856
aF-0.41863757371902466
aa(lp45
F0.543749988079071
aF0.4124999940395355
aF0.574999988079071
aF0.4124999940395355
aF-0.0031250000465661287
aF-0.004166666883975267
aa(lp46
F-0.03319896012544632
aF0.02421868033707142
aF-0.009959662333130836
aF0.02421868033707142
aF-0.053118348121643066
aF0.02421868033707142
aa(lp47
F-0.0
aF0.08649538457393646
aF-0.07303773611783981
aF0.07957576215267181
aF-0.03319896012544632
aF0.062276653945446014
aF-0.03319896012544632
aF0.10033462941646576
aF-0.01659948006272316
aF0.062276653945446014
aF-0.053118348121643066
aF0.062276653945446014
aF-0.053118348121643066
aF0.09687481820583344
aF-0.01659948006272316
aF0.09341500699520111
aaaa(lp48
aa(lp49
F0.05849871411919594
aF0.004944802261888981
aF0.1901424527168274
aF-2.3283064365386963e-10
aF0.02090156264603138
aF0.08432792872190475
aa(lp50
F0.10866306722164154
aF-0.05534385144710541
aF0.35165736079216003
aF0.20530372858047485
aF0.1613631248474121
aF0.09440051019191742
aaI0
aaa(lp51
F1363685033.919
a(lp52
(lp53
I1363685038
aI476534
aa(lp54
(lp55
(lp56
I0
aF-0.03651886805891991
aF-0.003459811443462968
aF0.27887123823165894
aF0.2906244397163391
aa(lp57
I-1
aF0.0
ag9
a(lp58
F0.003319908631965518
aF-0.04151778668165207
aF0.003319908631965518
aF-0.04151778668165207
aF0.029879052191972733
aF-0.04151778668165207
aF0.01659948006272316
aF-0.04497759789228439
aF0.01659948006272316
aF-0.031138326972723007
aF0.023239266127347946
aF-0.04843740910291672
aF0.013279571197926998
aF-0.04497759789228439
aa(lp59
F-0.07967749238014221
aF-0.04151778668165207
aF-0.059758104383945465
aF-0.03459813818335533
aF-0.09959688037633896
aF-0.04151778668165207
aF-0.07635758072137833
aF-0.055357031524181366
aF-0.07635758072137833
aF-0.04151778668165207
aF-0.06971783190965652
aF-0.055357031524181366
aF-0.08631730824708939
aF-0.05881684273481369
aa(lp60
F-0.013279571197926998
aF-0.062276653945446014
aF0.013279571197926998
aF-0.062276653945446014
aF0.5345032811164856
aF-0.41863757371902466
aa(lp61
F0.543749988079071
aF0.4124999940395355
aF0.574999988079071
aF0.4124999940395355
aF-0.0031250000465661287
aF-0.004166666883975267
aa(lp62
F-0.03319896012544632
aF0.02421868033707142
aF-0.009959662333130836
aF0.02421868033707142
aF-0.053118348121643066
aF0.02421868033707142
aa(lp63
F-0.0
aF0.08649538457393646
aF-0.07303773611783981
aF0.07957576215267181
aF-0.03319896012544632
aF0.062276653945446014
aF-0.03319896012544632
aF0.10033462941646576
aF-0.01659948006272316
aF0.062276653945446014
aF-0.053118348121643066
aF0.062276653945446014
aF-0.053118348121643066
aF0.09687481820583344
aF-0.01659948006272316
aF0.09341500699520111
aaaa(lp64
aa(lp65
F0.05849871411919594
aF0.004944802261888981
aF0.1901424527168274
aF-2.3283064365386963e-10
aF0.02090156264603138
aF0.08432792872190475
aa(lp66
F0.10866306722164154
aF-0.05534385144710541
aF0.35165736079216003
aF0.20530372858047485
aF0.1613631248474121
aF0.09440051019191742
aaI0
aaa(lp67
F1363685034.266
a(lp68
(lp69
I1363685038
aI976715
aa(lp70
(lp71
(lp72
I0
aF-0.026559142395853996
aF0.01729905605316162
aF0.25895190238952637
aF0.2698655426502228
aa(lp73
I-1
aF0.0
ag9
a(lp74
F0.013279571197926998
aF-0.003459811443462968
aF0.013279571197926998
aF-0.003459811443462968
aF0.039838746190071106
aF-0.01729908213019371
aF0.026559174060821533
aF-0.02421870455145836
aF0.026559174060821533
aF-0.006919622886925936
aF0.03651886805891991
aF-0.02421870455145836
aF0.019919387996196747
aF-0.02421870455145836
aa(lp75
F-0.06639792025089264
aF-0.020758893340826035
aF-0.043158624321222305
aF-0.01729908213019371
aF-0.0829973965883255
aF-0.02421870455145836
aF-0.06307800859212875
aF-0.038057949393987656
aF-0.06307800859212875
aF-0.020758893340826035
aF-0.04979844018816948
aF-0.038057949393987656
aF-0.06971783190965652
aF-0.038057949393987656
aa(lp76
F0.003319908631965518
aF-0.04497759789228439
aF0.01659948006272316
aF-0.04497759789228439
aF0.5345032811164856
aF-0.41863757371902466
aa(lp77
F0.528124988079071
aF0.4375
aF0.559374988079071
aF0.42916667461395264
aF-0.0031250000465661287
aF-0.004166666883975267
aa(lp78
F-0.026559142395853996
aF0.03459816426038742
aF-0.006639817263931036
aF0.03459816426038742
aF-0.04647853225469589
aF0.03459816426038742
aa(lp79
F0.013279571197926998
aF0.09687481820583344
aF-0.06307800859212875
aF0.08649538457393646
aF-0.023239297792315483
aF0.06919627636671066
aF-0.023239297792315483
aF0.10379444062709808
aF-0.003319908631965518
aF0.06919627636671066
aF-0.043158624321222305
aF0.06919627636671066
aF-0.043158624321222305
aF0.09687481820583344
aF-0.003319908631965518
aF0.10033462941646576
aaaa(lp80
aa(lp81
F0.058506231755018234
aF0.004855060949921608
aF0.1901424527168274
aF-1.1641532182693481e-10
aF0.02090156264603138
aF0.0827939510345459
aa(lp82
F0.10875207185745239
aF-0.05547401309013367
aF0.35167789459228516
aF0.2052614390850067
aF0.1619439572095871
aF0.09290672838687897
aaI0
aaa(lp83
F1363685034.621
a(lp84
(lp85
I1363685039
aI476901
aa(lp86
(lp87
(lp88
I0
aF-0.029879052191972733
aF0.038057975471019745
aF0.25895190238952637
aF0.2698655426502228
aa(lp89
I-1
aF0.0
ag9
a(lp90
F0.006639785598963499
aF0.010379434563219547
aF0.006639785598963499
aF0.010379434563219547
aF0.029879052191972733
aF0.003459811443462968
aF0.019919387996196747
aF-0.003459811443462968
aF0.019919387996196747
aF0.010379434563219547
aF0.026559174060821533
aF-0.003459811443462968
aF0.013279571197926998
aF-0.003459811443462968
aa(lp91
F-0.06971783190965652
aF0.0
aF-0.053118348121643066
aF-0.003459811443462968
aF-0.07967749238014221
aF-0.006919622886925936
aF-0.06639792025089264
aF-0.01729908213019371
aF-0.06639792025089264
aF0.003459811443462968
aF-0.05643825605511665
aF-0.010379434563219547
aF-0.07303773611783981
aF-0.01729908213019371
aa(lp92
F-0.003319908631965518
aF-0.02421870455145836
aF0.01659948006272316
aF-0.020758893340826035
aF0.5345032811164856
aF-0.41863757371902466
aa(lp93
F0.534375011920929
aF0.46666666865348816
aF0.565625011920929
aF0.4625000059604645
aF-0.0031250000465661287
aF-0.004166666883975267
aa(lp94
F-0.026559142395853996
aF0.05881684273481369
aF-0.006639817263931036
aF0.05881684273481369
aF-0.04647853225469589
aF0.05881684273481369
aa(lp95
F0.013279571197926998
aF0.1210934966802597
aF-0.06971783190965652
aF0.11071406304836273
aF-0.023239297792315483
aF0.09341500699520111
aF-0.023239297792315483
aF0.13147297501564026
aF-0.003319908631965518
aF0.09687481820583344
aF-0.04647853225469589
aF0.09341500699520111
aF-0.04647853225469589
aF0.11763369292020798
aF-0.003319908631965518
aF0.1210934966802597
aaaa(lp96
aa(lp97
F0.05849871411919594
aF0.004944802261888981
aF0.1901424527168274
aF-2.3283064365386963e-10
aF0.02090156264603138
aF0.08432792872190475
aa(lp98
F0.10857125371694565
aF-0.05529763177037239
aF0.3516595661640167
aF0.20510278642177582
aF0.1610470712184906
aF0.09436824172735214
aaI0
aaa(lp99
F1363685034.966
a(lp100
(lp101
I1363685039
aI476901
aa(lp102
(lp103
(lp104
I0
aF-0.029879052191972733
aF0.038057975471019745
aF0.25895190238952637
aF0.2698655426502228
aa(lp105
I-1
aF0.0
ag9
a(lp106
F0.006639785598963499
aF0.010379434563219547
aF0.006639785598963499
aF0.010379434563219547
aF0.029879052191972733
aF0.003459811443462968
aF0.019919387996196747
aF-0.003459811443462968
aF0.019919387996196747
aF0.010379434563219547
aF0.026559174060821533
aF-0.003459811443462968
aF0.013279571197926998
aF-0.003459811443462968
aa(lp107
F-0.06971783190965652
aF0.0
aF-0.053118348121643066
aF-0.003459811443462968
aF-0.07967749238014221
aF-0.006919622886925936
aF-0.06639792025089264
aF-0.01729908213019371
aF-0.06639792025089264
aF0.003459811443462968
aF-0.05643825605511665
aF-0.010379434563219547
aF-0.07303773611783981
aF-0.01729908213019371
aa(lp108
F-0.003319908631965518
aF-0.02421870455145836
aF0.01659948006272316
aF-0.020758893340826035
aF0.5345032811164856
aF-0.41863757371902466
aa(lp109
F0.534375011920929
aF0.46666666865348816
aF0.565625011920929
aF0.4625000059604645
aF-0.0031250000465661287
aF-0.004166666883975267
aa(lp110
F-0.026559142395853996
aF0.05881684273481369
aF-0.006639817263931036
aF0.05881684273481369
aF-0.04647853225469589
aF0.05881684273481369
aa(lp111
F0.013279571197926998
aF0.1210934966802597
aF-0.06971783190965652
aF0.11071406304836273
aF-0.023239297792315483
aF0.09341500699520111
aF-0.023239297792315483
aF0.13147297501564026
aF-0.003319908631965518
aF0.09687481820583344
aF-0.04647853225469589
aF0.09341500699520111
aF-0.04647853225469589
aF0.11763369292020798
aF-0.003319908631965518
aF0.1210934966802597
aaaa(lp112
aa(lp113
F0.05849871411919594
aF0.004944802261888981
aF0.1901424527168274
aF-2.3283064365386963e-10
aF0.02090156264603138
aF0.08432792872190475
aa(lp114
F0.10857125371694565
aF-0.05529763177037239
aF0.3516595661640167
aF0.20510278642177582
aF0.1610470712184906
aF0.09436824172735214
aaI0
aaa(lp115
F1363685035.334
a(lp116
(lp117
I1363685039
aI977073
aa(lp118
(lp119
(lp120
I0
aF-0.02489922009408474
aF-0.1297430545091629
aF0.26891160011291504
aF0.28024500608444214
aa(lp121
I-1
aF0.0
ag9
a(lp122
F0.006639785598963499
aF-0.1660711020231247
aF0.006639785598963499
aF-0.1660711020231247
aF0.04315865412354469
aF-0.1695309281349182
aF0.026559174060821533
aF-0.1833701729774475
aF0.026559174060821533
aF-0.1660711020231247
aF0.03319896012544632
aF-0.17645055055618286
aF0.01659948006272316
aF-0.1833701729774475
aa(lp123
F-0.06971783190965652
aF-0.1660711020231247
aF-0.05643825605511665
aF-0.1660711020231247
aF-0.0829973965883255
aF-0.17299073934555054
aF-0.06971783190965652
aF-0.1833701729774475
aF-0.06971783190965652
aF-0.1660711020231247
aF-0.059758104383945465
aF-0.1833701729774475
aF-0.07303773611783981
aF-0.1833701729774475
aa(lp124
F-0.003319908631965518
aF-0.19374960660934448
aF0.01659948006272316
aF-0.20066925883293152
aF0.5345032811164856
aF-0.41863757371902466
aa(lp125
F0.534375011920929
aF0.25833332538604736
aF0.565625011920929
aF0.25833332538604736
aF-0.0031250000465661287
aF-0.004166666883975267
aa(lp126
F-0.023239297792315483
aF-0.10725425183773041
aF-0.0
aF-0.10725425183773041
aF-0.043158624321222305
aF-0.10725425183773041
aa(lp127
F0.019919387996196747
aF-0.04843740910291672
aF-0.05643825605511665
aF-0.05189722031354904
aF-0.01659948006272316
aF-0.06919629871845245
aF-0.01659948006272316
aF-0.03459813818335533
aF0.006639785598963499
aF-0.06919629871845245
aF-0.03651886805891991
aF-0.06919629871845245
aF-0.03651886805891991
aF-0.04497759789228439
aF0.006639785598963499
aF-0.04151778668165207
aaaa(lp128
aa(lp129
F0.058506231755018234
aF0.004855060949921608
aF0.1901424527168274
aF-1.1641532182693481e-10
aF0.02090156264603138
aF0.0827939510345459
aa(lp130
F0.1088237315416336
aF-0.05551007390022278
aF0.3516544699668884
aF0.2054380625486374
aF0.16222237050533295
aF0.09293517470359802
aaI0
aaa(lp131
F1363685035.721
a(lp132
(lp133
I1363685040
aI510597
aa(lp134
(lp135
(lp136
I0
aF0.006639785598963499
aF0.003459811443462968
aF0.25895190238952637
aF0.2698655426502228
aa(lp137
I-1
aF0.0
ag9
a(lp138
F0.039838746190071106
aF-0.03459813818335533
aF0.039838746190071106
aF-0.03459813818335533
aF0.06971783190965652
aF-0.03459813818335533
aF0.056438226252794266
aF-0.04151778668165207
aF0.056438226252794266
aF-0.027678515762090683
aF0.06639792025089264
aF-0.04151778668165207
aF0.04979844018816948
aF-0.04151778668165207
aa(lp139
F-0.03651886805891991
aF-0.031138326972723007
aF-0.026559142395853996
aF-0.031138326972723007
aF-0.04647853225469589
aF-0.04151778668165207
aF-0.03319896012544632
aF-0.04151778668165207
aF-0.03319896012544632
aF-0.027678515762090683
aF-0.029879052191972733
aF-0.04151778668165207
aF-0.03651886805891991
aF-0.04151778668165207
aa(lp140
F0.026559174060821533
aF-0.055357031524181366
aF0.04647853225469589
aF-0.055357031524181366
aF0.5345032811164856
aF-0.41863757371902466
aa(lp141
F0.5062500238418579
aF0.4333333373069763
aF0.53125
aF0.42500001192092896
aF-0.0031250000465661287
aF-0.004166666883975267
aa(lp142
F0.006639785598963499
aF0.027678539976477623
aF0.026559174060821533
aF0.027678539976477623
aF-0.013279571197926998
aF0.027678539976477623
aa(lp143
F0.04647853225469589
aF0.08303557336330414
aF-0.026559142395853996
aF0.08303557336330414
aF0.013279571197926998
aF0.06573646515607834
aF0.013279571197926998
aF0.10033462941646576
aF0.03319896012544632
aF0.06573646515607834
aF-0.006639817263931036
aF0.06573646515607834
aF-0.006639817263931036
aF0.09341500699520111
aF0.03319896012544632
aF0.09341500699520111
aaaa(lp144
aa(lp145
F0.05849871411919594
aF0.004944802261888981
aF0.1901424527168274
aF-2.3283064365386963e-10
aF0.02090156264603138
aF0.08432792872190475
aa(lp146
F0.10859101265668869
aF-0.05523913353681564
aF0.35164666175842285
aF0.2048734873533249
aF0.16114160418510437
aF0.09429027885198593
aaI0
aaa(lp147
F1363685036.086
a(lp148
(lp149
I1363685040
aI977436
aa(lp150
(lp151
(lp152
I0
aF0.03153900429606438
aF0.03978785499930382
aF0.2489922046661377
aF0.2594861090183258
aa(lp153
I-1
aF0.0
ag9
a(lp154
F0.06639792025089264
aF0.013839245773851871
aF0.06639792025089264
aF0.013839245773851871
aF0.09295709431171417
aF0.013839245773851871
aF0.07967749238014221
aF-0.006919622886925936
aF0.07967749238014221
aF0.010379434563219547
aF0.08631730824708939
aF-0.006919622886925936
aF0.07303770631551743
aF-0.006919622886925936
aa(lp155
F-0.009959662333130836
aF0.003459811443462968
aF0.003319908631965518
aF0.0
aF-0.019919387996196747
aF-0.003459811443462968
aF-0.009959662333130836
aF-0.006919622886925936
aF-0.009959662333130836
aF0.006919622886925936
aF-0.0
aF-0.006919622886925936
aF-0.013279571197926998
aF-0.006919622886925936
aa(lp156
F0.04979844018816948
aF-0.020758893340826035
aF0.07303770631551743
aF-0.02421870455145836
aF0.5345032811164856
aF-0.41863757371902466
aa(lp157
F0.48124998807907104
aF0.47083333134651184
aF0.5093749761581421
aF0.46666666865348816
aF-0.0031250000465661287
aF-0.004166666883975267
aa(lp158
F0.03651886805891991
aF0.062276653945446014
aF0.056438226252794266
aF0.062276653945446014
aF0.01659948006272316
aF0.062276653945446014
aa(lp159
F0.07303770631551743
aF0.11417386680841446
aF-0.0
aF0.11417386680841446
aF0.039838746190071106
aF0.09687481820583344
aF0.039838746190071106
aF0.13147297501564026
aF0.056438226252794266
aF0.09687481820583344
aF0.019919387996196747
aF0.09687481820583344
aF0.019919387996196747
aF0.12455330789089203
aF0.056438226252794266
aF0.12455330789089203
aaaa(lp160
aa(lp161
F0.05849871411919594
aF0.004944802261888981
aF0.1901424527168274
aF-2.3283064365386963e-10
aF0.02090156264603138
aF0.08432792872190475
aa(lp162
F0.10862147063016891
aF-0.055322643369436264
aF0.35167503356933594
aF0.2051984816789627
aF0.16119909286499023
aF0.09438333660364151
aaI0
aaa(lp163
F1363685036.429
a(lp164
(lp165
I1363685040
aI977436
aa(lp166
(lp167
(lp168
I0
aF0.03153900429606438
aF0.03978785499930382
aF0.2489922046661377
aF0.2594861090183258
aa(lp169
I-1
aF0.0
ag9
a(lp170
F0.06639792025089264
aF0.013839245773851871
aF0.06639792025089264
aF0.013839245773851871
aF0.09295709431171417
aF0.013839245773851871
aF0.07967749238014221
aF-0.006919622886925936
aF0.07967749238014221
aF0.010379434563219547
aF0.08631730824708939
aF-0.006919622886925936
aF0.07303770631551743
aF-0.006919622886925936
aa(lp171
F-0.009959662333130836
aF0.003459811443462968
aF0.003319908631965518
aF0.0
aF-0.019919387996196747
aF-0.003459811443462968
aF-0.009959662333130836
aF-0.006919622886925936
aF-0.009959662333130836
aF0.006919622886925936
aF-0.0
aF-0.006919622886925936
aF-0.013279571197926998
aF-0.006919622886925936
aa(lp172
F0.04979844018816948
aF-0.020758893340826035
aF0.07303770631551743
aF-0.02421870455145836
aF0.5345032811164856
aF-0.41863757371902466
aa(lp173
F0.48124998807907104
aF0.47083333134651184
aF0.5093749761581421
aF0.46666666865348816
aF-0.0031250000465661287
aF-0.004166666883975267
aa(lp174
F0.03651886805891991
aF0.062276653945446014
aF0.056438226252794266
aF0.062276653945446014
aF0.01659948006272316
aF0.062276653945446014
aa(lp175
F0.07303770631551743
aF0.11417386680841446
aF-0.0
aF0.11417386680841446
aF0.039838746190071106
aF0.09687481820583344
aF0.039838746190071106
aF0.13147297501564026
aF0.056438226252794266
aF0.09687481820583344
aF0.019919387996196747
aF0.09687481820583344
aF0.019919387996196747
aF0.12455330789089203
aF0.056438226252794266
aF0.12455330789089203
aaaa(lp176
aa(lp177
F0.05849871411919594
aF0.004944802261888981
aF0.1901424527168274
aF-2.3283064365386963e-10
aF0.02090156264603138
aF0.08432792872190475
aa(lp178
F0.10862147063016891
aF-0.055322643369436264
aF0.35167503356933594
aF0.2051984816789627
aF0.16119909286499023
aF0.09438333660364151
aaI0
aaa(lp179
F1363685036.772
a(lp180
(lp181
I1363685041
aI544310
aa(lp182
(lp183
(lp184
I0
aF0.1261560618877411
aF0.027678539976477623
aF0.25895190238952637
aF0.2698655426502228
aa(lp185
I-1
aF0.0
ag9
a(lp186
F0.15603511035442352
aF-0.003459811443462968
aF0.15603511035442352
aF-0.003459811443462968
aF0.18923406302928925
aF-0.006919622886925936
aF0.17263458669185638
aF-0.013839269988238811
aF0.17263458669185638
aF0.003459811443462968
aF0.17927436530590057
aF-0.013839269988238811
aF0.165994793176651
aF-0.013839269988238811
aa(lp187
F0.0829973965883255
aF-0.006919622886925936
aF0.10291679203510284
aF-0.003459811443462968
aF0.07303770631551743
aF-0.01729908213019371
aF0.08963718265295029
aF-0.02421870455145836
aF0.08963718265295029
aF-0.003459811443462968
aF0.09627696871757507
aF-0.02421870455145836
aF0.0829973965883255
aF-0.02421870455145836
aa(lp188
F0.14939531683921814
aF-0.027678515762090683
aF0.165994793176651
aF-0.027678515762090683
aF0.5345032811164856
aF-0.41863757371902466
aa(lp189
F0.3843750059604645
aF0.4625000059604645
aF0.41874998807907104
aF0.4541666805744171
aF-0.0031250000465661287
aF-0.004166666883975267
aa(lp190
F0.13279584050178528
aF0.055357031524181366
aF0.14939531683921814
aF0.055357031524181366
aF0.11287645250558853
aF0.055357031524181366
aa(lp191
F0.1626748889684677
aF0.11071406304836273
aF0.08963718265295029
aF0.10033462941646576
aF0.129475936293602
aF0.08995519578456879
aF0.129475936293602
aF0.1210934966802597
aF0.14939531683921814
aF0.08995519578456879
aF0.10955657809972763
aF0.08995519578456879
aF0.10955657809972763
aF0.11417386680841446
aF0.14939531683921814
aF0.11417386680841446
aaaa(lp192
aa(lp193
F0.05849871411919594
aF0.004944802261888981
aF0.1901424527168274
aF-2.3283064365386963e-10
aF0.02090156264603138
aF0.08432792872190475
aa(lp194
F0.10853776335716248
aF-0.05528079345822334
aF0.35159847140312195
aF0.2050548642873764
aF0.1609714925289154
aF0.09436048567295074
aaI0
aaa(lp195
F1363685037.106
a(lp196
(lp197
I1363685041
aI977792
aa(lp198
(lp199
(lp200
I0
aF0.10789661854505539
aF0.029408421367406845
aF0.22907282412052155
aF0.23872721195220947
aa(lp201
I-1
aF0.0
ag9
a(lp202
F0.14275553822517395
aF0.0
aF0.14275553822517395
aF0.0
aF0.15271523594856262
aF-0.003459811443462968
aF0.14939531683921814
aF-0.010379434563219547
aF0.14939531683921814
aF-0.003459811443462968
aF0.15271523594856262
aF-0.010379434563219547
aF0.14607541263103485
aF-0.006919622886925936
aa(lp203
F0.06971783190965652
aF-0.003459811443462968
aF0.08631730824708939
aF0.0
aF0.07635761797428131
aF0.0
aF0.0829973965883255
aF-0.010379434563219547
aF0.0829973965883255
aF0.0
aF0.08631730824708939
aF-0.013839269988238811
aF0.07967749238014221
aF-0.006919622886925936
aa(lp204
F0.1261560618877411
aF-0.03459813818335533
aF0.14607541263103485
aF-0.03459813818335533
aF0.5345032811164856
aF-0.41863757371902466
aa(lp205
F0.40625
aF0.4583333432674408
aF0.4312500059604645
aF0.4541666805744171
aF-0.0031250000465661287
aF-0.004166666883975267
aa(lp206
F0.10955657809972763
aF0.04843740910291672
aF0.129475936293602
aF0.04843740910291672
aF0.09295709431171417
aF0.04843740910291672
aa(lp207
F0.14275553822517395
aF0.10379444062709808
aF0.06639792025089264
aF0.10033462941646576
aF0.10955657809972763
aF0.08303557336330414
aF0.10955657809972763
aF0.11763369292020798
aF0.1261560618877411
aF0.08303557336330414
aF0.08963718265295029
aF0.08303557336330414
aF0.08963718265295029
aF0.11071406304836273
aF0.1261560618877411
aF0.11071406304836273
aaaa(lp208
aa(lp209
F0.058506231755018234
aF0.004855060949921608
aF0.1901424527168274
aF-1.1641532182693481e-10
aF0.02090156264603138
aF0.0827939510345459
aa(lp210
F0.10867837071418762
aF-0.05543691664934158
aF0.3516367971897125
aF0.20515480637550354
aF0.16177557408809662
aF0.0928894430398941
aaI0
aaa(lp211
F1363685037.439
a(lp212
(lp213
I1363685041
aI977792
aa(lp214
(lp215
(lp216
I0
aF0.10789661854505539
aF0.029408421367406845
aF0.22907282412052155
aF0.23872721195220947
aa(lp217
I-1
aF0.0
ag9
a(lp218
F0.14275553822517395
aF0.0
aF0.14275553822517395
aF0.0
aF0.15271523594856262
aF-0.003459811443462968
aF0.14939531683921814
aF-0.010379434563219547
aF0.14939531683921814
aF-0.003459811443462968
aF0.15271523594856262
aF-0.010379434563219547
aF0.14607541263103485
aF-0.006919622886925936
aa(lp219
F0.06971783190965652
aF-0.003459811443462968
aF0.08631730824708939
aF0.0
aF0.07635761797428131
aF0.0
aF0.0829973965883255
aF-0.010379434563219547
aF0.0829973965883255
aF0.0
aF0.08631730824708939
aF-0.013839269988238811
aF0.07967749238014221
aF-0.006919622886925936
aa(lp220
F0.1261560618877411
aF-0.03459813818335533
aF0.14607541263103485
aF-0.03459813818335533
aF0.5345032811164856
aF-0.41863757371902466
aa(lp221
F0.40625
aF0.4583333432674408
aF0.4312500059604645
aF0.4541666805744171
aF-0.0031250000465661287
aF-0.004166666883975267
aa(lp222
F0.10955657809972763
aF0.04843740910291672
aF0.129475936293602
aF0.04843740910291672
aF0.09295709431171417
aF0.04843740910291672
aa(lp223
F0.14275553822517395
aF0.10379444062709808
aF0.06639792025089264
aF0.10033462941646576
aF0.10955657809972763
aF0.08303557336330414
aF0.10955657809972763
aF0.11763369292020798
aF0.1261560618877411
aF0.08303557336330414
aF0.08963718265295029
aF0.08303557336330414
aF0.08963718265295029
aF0.11071406304836273
aF0.1261560618877411
aF0.11071406304836273
aaaa(lp224
aa(lp225
F0.058506231755018234
aF0.004855060949921608
aF0.1901424527168274
aF-1.1641532182693481e-10
aF0.02090156264603138
aF0.0827939510345459
aa(lp226
F0.10867837071418762
aF-0.05543691664934158
aF0.3516367971897125
aF0.20515480637550354
aF0.16177557408809662
aF0.0928894430398941
aaI0
aaa(lp227
F1363685037.778
a(lp228
(lp229
I1363685042
aI511320
aa(lp230
(lp231
(lp232
I0
aF-0.021579312160611153
aF0.02594861015677452
aF0.2489922046661377
aF0.2594861090183258
aa(lp233
I-1
aF0.0
ag9
a(lp234
F0.013279571197926998
aF-0.010379434563219547
aF0.013279571197926998
aF-0.010379434563219547
aF0.03319896012544632
aF-0.013839269988238811
aF0.023239266127347946
aF-0.01729908213019371
aF0.023239266127347946
aF-0.003459811443462968
aF0.029879052191972733
aF-0.01729908213019371
aF0.019919387996196747
aF-0.01729908213019371
aa(lp235
F-0.06307800859212875
aF-0.003459811443462968
aF-0.04979844018816948
aF0.006919622886925936
aF-0.07303773611783981
aF-0.006919622886925936
aF-0.06307800859212875
aF-0.013839269988238811
aF-0.06307800859212875
aF0.003459811443462968
aF-0.053118348121643066
aF-0.013839269988238811
aF-0.06639792025089264
aF-0.013839269988238811
aa(lp236
F-0.006639817263931036
aF-0.031138326972723007
aF0.019919387996196747
aF-0.03459813818335533
aF0.5345032811164856
aF-0.41863757371902466
aa(lp237
F0.53125
aF0.46666666865348816
aF0.559374988079071
aF0.4625000059604645
aF-0.0031250000465661287
aF-0.004166666883975267
aa(lp238
F-0.01659948006272316
aF0.04843740910291672
aF0.003319908631965518
aF0.04843740910291672
aF-0.03651886805891991
aF0.04843740910291672
aa(lp239
F0.01659948006272316
aF0.10033462941646576
aF-0.04979844018816948
aF0.10379444062709808
aF-0.013279571197926998
aF0.08649538457393646
aF-0.013279571197926998
aF0.11763369292020798
aF0.003319908631965518
aF0.08649538457393646
aF-0.03319896012544632
aF0.08649538457393646
aF-0.03319896012544632
aF0.11071406304836273
aF0.003319908631965518
aF0.10725425183773041
aaaa(lp240
aa(lp241
F0.05849871411919594
aF0.004944802261888981
aF0.1901424527168274
aF-2.3283064365386963e-10
aF0.02090156264603138
aF0.08432792872190475
aa(lp242
F0.1086779534816742
aF-0.05535131320357323
aF0.35167571902275085
aF0.2053447663784027
aF0.16142718493938446
aF0.09440693259239197
aaI0
aaa(lp243
F1363685038.116
a(lp244
(lp245
I1363685042
aI978163
aa(lp246
(lp247
(lp248
I0
aF-0.12781600654125214
aF0.022488798946142197
aF0.2489922046661377
aF0.2594861090183258
aa(lp249
I-1
aF0.0
ag9
a(lp250
F-0.09295706450939178
aF-0.01729908213019371
aF-0.09295706450939178
aF-0.01729908213019371
aF-0.07303773611783981
aF-0.01729908213019371
aF-0.0829973965883255
aF-0.02421870455145836
aF-0.0829973965883255
aF-0.006919622886925936
aF-0.07635758072137833
aF-0.02421870455145836
aF-0.08631730824708939
aF-0.02421870455145836
aa(lp251
F-0.16931471228599548
aF-0.003459811443462968
aF-0.1560351401567459
aF0.0
aF-0.17927436530590057
aF-0.006919622886925936
aF-0.16931471228599548
aF-0.013839269988238811
aF-0.16931471228599548
aF0.0
aF-0.15935498476028442
aF-0.013839269988238811
aF-0.17263461649417877
aF-0.013839269988238811
aa(lp252
F-0.11619635671377182
aF-0.03459813818335533
aF-0.08631730824708939
aF-0.038057949393987656
aF0.5345032811164856
aF-0.41863757371902466
aa(lp253
F0.640625
aF0.46666666865348816
aF0.659375011920929
aF0.4625000059604645
aF-0.0031250000465661287
aF-0.004166666883975267
aa(lp254
F-0.1261560171842575
aF0.04843740910291672
aF-0.10623670369386673
aF0.04843740910291672
aF-0.14607541263103485
aF0.04843740910291672
aa(lp255
F-0.08631730824708939
aF0.09341500699520111
aF-0.1560351401567459
aF0.10379444062709808
aF-0.1195162683725357
aF0.07957576215267181
aF-0.1195162683725357
aF0.11071406304836273
aF-0.10291679203510284
aF0.07957576215267181
aF-0.13943566381931305
aF0.07957576215267181
aF-0.13943566381931305
aF0.10379444062709808
aF-0.10291679203510284
aF0.10033462941646576
aaaa(lp256
aa(lp257
F0.05849871411919594
aF0.004944802261888981
aF0.1901424527168274
aF-2.3283064365386963e-10
aF0.02090156264603138
aF0.08432792872190475
aa(lp258
F0.10855595767498016
aF-0.05528964102268219
aF0.35165202617645264
aF0.20507121086120605
aF0.16099780797958374
aF0.09436490386724472
aaI0
aaa(lp259
F1363685038.458
a(lp260
(lp261
I1363685042
aI978163
aa(lp262
(lp263
(lp264
I0
aF-0.12781600654125214
aF0.022488798946142197
aF0.2489922046661377
aF0.2594861090183258
aa(lp265
I-1
aF0.0
ag9
a(lp266
F-0.09295706450939178
aF-0.01729908213019371
aF-0.09295706450939178
aF-0.01729908213019371
aF-0.07303773611783981
aF-0.01729908213019371
aF-0.0829973965883255
aF-0.02421870455145836
aF-0.0829973965883255
aF-0.006919622886925936
aF-0.07635758072137833
aF-0.02421870455145836
aF-0.08631730824708939
aF-0.02421870455145836
aa(lp267
F-0.16931471228599548
aF-0.003459811443462968
aF-0.1560351401567459
aF0.0
aF-0.17927436530590057
aF-0.006919622886925936
aF-0.16931471228599548
aF-0.013839269988238811
aF-0.16931471228599548
aF0.0
aF-0.15935498476028442
aF-0.013839269988238811
aF-0.17263461649417877
aF-0.013839269988238811
aa(lp268
F-0.11619635671377182
aF-0.03459813818335533
aF-0.08631730824708939
aF-0.038057949393987656
aF0.5345032811164856
aF-0.41863757371902466
aa(lp269
F0.640625
aF0.46666666865348816
aF0.659375011920929
aF0.4625000059604645
aF-0.0031250000465661287
aF-0.004166666883975267
aa(lp270
F-0.1261560171842575
aF0.04843740910291672
aF-0.10623670369386673
aF0.04843740910291672
aF-0.14607541263103485
aF0.04843740910291672
aa(lp271
F-0.08631730824708939
aF0.09341500699520111
aF-0.1560351401567459
aF0.10379444062709808
aF-0.1195162683725357
aF0.07957576215267181
aF-0.1195162683725357
aF0.11071406304836273
aF-0.10291679203510284
aF0.07957576215267181
aF-0.13943566381931305
aF0.07957576215267181
aF-0.13943566381931305
aF0.10379444062709808
aF-0.10291679203510284
aF0.10033462941646576
aaaa(lp272
aa(lp273
F0.05849871411919594
aF0.004944802261888981
aF0.1901424527168274
aF-2.3283064365386963e-10
aF0.02090156264603138
aF0.08432792872190475
aa(lp274
F0.10855595767498016
aF-0.05528964102268219
aF0.35165202617645264
aF0.20507121086120605
aF0.16099780797958374
aF0.09436490386724472
aaI0
aaa(lp275
F1363685038.803
a(lp276
(lp277
I1363685043
aI511682
aa(lp278
(lp279
(lp280
I0
aF-0.11453642696142197
aF0.046707477420568466
aF0.2489922046661377
aF0.2594861090183258
aa(lp281
I-1
aF0.0
ag9
a(lp282
F-0.0829973965883255
aF0.006919622886925936
aF-0.0829973965883255
aF0.006919622886925936
aF-0.05643825605511665
aF0.006919622886925936
aF-0.06639792025089264
aF0.0
aF-0.06639792025089264
aF0.013839245773851871
aF-0.059758104383945465
aF0.0
aF-0.07303773611783981
aF0.0
aa(lp283
F-0.1560351401567459
aF0.020758869126439095
aF-0.13943566381931305
aF0.02421868033707142
aF-0.16931471228599548
aF0.02421868033707142
aF-0.1560351401567459
aF0.006919622886925936
aF-0.1560351401567459
aF0.02421868033707142
aF-0.14939531683921814
aF0.006919622886925936
aF-0.1626748889684677
aF0.006919622886925936
aa(lp284
F-0.10623670369386673
aF-0.010379434563219547
aF-0.07303773611783981
aF-0.013839269988238811
aF0.5345032811164856
aF-0.41863757371902466
aa(lp285
F0.621874988079071
aF0.4958333373069763
aF0.6468750238418579
aF0.4958333373069763
aF-0.0031250000465661287
aF-0.004166666883975267
aa(lp286
F-0.11287645250558853
aF0.06919627636671066
aF-0.09295706450939178
aF0.06919627636671066
aF-0.13279584050178528
aF0.06919627636671066
aa(lp287
F-0.07303773611783981
aF0.1210934966802597
aF-0.14275550842285156
aF0.12801311910152435
aF-0.10623670369386673
aF0.10725425183773041
aF-0.10623670369386673
aF0.14185240864753723
aF-0.08963721990585327
aF0.10725425183773041
aF-0.1261560171842575
aF0.10725425183773041
aF-0.1261560171842575
aF0.13493278622627258
aF-0.08963721990585327
aF0.12801311910152435
aaaa(lp288
aa(lp289
F0.05849871411919594
aF0.004944802261888981
aF0.1901424527168274
aF-2.3283064365386963e-10
aF0.02090156264603138
aF0.08432792872190475
aa(lp290
F0.10866493731737137
aF-0.05534476786851883
aF0.35166531801223755
aF0.20532065629959106
aF0.16138914227485657
aF0.09440302848815918
aaI0
aaa(lp291
F1363685039.141
a(lp292
(lp293
I1363685044
aI11857
aa(lp294
(lp295
(lp296
I0
aF-0.014939557760953903
aF0.05016728863120079
aF0.2489922046661377
aF0.2594861090183258
aa(lp297
I-1
aF0.0
ag9
a(lp298
F0.013279571197926998
aF0.013839245773851871
aF0.013279571197926998
aF0.013839245773851871
aF0.04647853225469589
aF0.010379434563219547
aF0.029879052191972733
aF0.003459811443462968
aF0.029879052191972733
aF0.013839245773851871
aF0.03651886805891991
aF0.003459811443462968
aF0.023239266127347946
aF0.0
aa(lp299
F-0.05643825605511665
aF0.013839245773851871
aF-0.04647853225469589
aF0.013839245773851871
aF-0.06971783190965652
aF0.010379434563219547
aF-0.05643825605511665
aF0.0
aF-0.05643825605511665
aF0.013839245773851871
aF-0.04979844018816948
aF0.003459811443462968
aF-0.059758104383945465
aF0.0
aa(lp300
F0.003319908631965518
aF-0.010379434563219547
aF0.023239266127347946
aF-0.010379434563219547
aF0.5345032811164856
aF-0.41863757371902466
aa(lp301
F0.518750011920929
aF0.48750001192092896
aF0.5531250238418579
aF0.48750001192092896
aF-0.0031250000465661287
aF-0.004166666883975267
aa(lp302
F-0.009959662333130836
aF0.06573646515607834
aF0.006639785598963499
aF0.06573646515607834
aF-0.029879052191972733
aF0.06573646515607834
aa(lp303
F0.023239266127347946
aF0.1210934966802597
aF-0.039838775992393494
aF0.11763369292020798
aF-0.006639817263931036
aF0.10033462941646576
aF-0.006639817263931036
aF0.13493278622627258
aF0.009959693998098373
aF0.10033462941646576
aF-0.019919387996196747
aF0.10033462941646576
aF-0.019919387996196747
aF0.12801311910152435
aF0.009959693998098373
aF0.12801311910152435
aaaa(lp304
aa(lp305
F0.058506231755018234
aF0.004855060949921608
aF0.1901424527168274
aF-1.1641532182693481e-10
aF0.02090156264603138
aF0.0827939510345459
aa(lp306
F0.10853602737188339
aF-0.055365290492773056
aF0.35160374641418457
aF0.20481903851032257
aF0.1612456887960434
aF0.09283538907766342
aaI0
aaa(lp307
F1363685039.485
a(lp308
(lp309
I1363685044
aI11857
aa(lp310
(lp311
(lp312
I0
aF-0.014939557760953903
aF0.05016728863120079
aF0.2489922046661377
aF0.2594861090183258
aa(lp313
I-1
aF0.0
ag9
a(lp314
F0.013279571197926998
aF0.013839245773851871
aF0.013279571197926998
aF0.013839245773851871
aF0.04647853225469589
aF0.010379434563219547
aF0.029879052191972733
aF0.003459811443462968
aF0.029879052191972733
aF0.013839245773851871
aF0.03651886805891991
aF0.003459811443462968
aF0.023239266127347946
aF0.0
aa(lp315
F-0.05643825605511665
aF0.013839245773851871
aF-0.04647853225469589
aF0.013839245773851871
aF-0.06971783190965652
aF0.010379434563219547
aF-0.05643825605511665
aF0.0
aF-0.05643825605511665
aF0.013839245773851871
aF-0.04979844018816948
aF0.003459811443462968
aF-0.059758104383945465
aF0.0
aa(lp316
F0.003319908631965518
aF-0.010379434563219547
aF0.023239266127347946
aF-0.010379434563219547
aF0.5345032811164856
aF-0.41863757371902466
aa(lp317
F0.518750011920929
aF0.48750001192092896
aF0.5531250238418579
aF0.48750001192092896
aF-0.0031250000465661287
aF-0.004166666883975267
aa(lp318
F-0.009959662333130836
aF0.06573646515607834
aF0.006639785598963499
aF0.06573646515607834
aF-0.029879052191972733
aF0.06573646515607834
aa(lp319
F0.023239266127347946
aF0.1210934966802597
aF-0.039838775992393494
aF0.11763369292020798
aF-0.006639817263931036
aF0.10033462941646576
aF-0.006639817263931036
aF0.13493278622627258
aF0.009959693998098373
aF0.10033462941646576
aF-0.019919387996196747
aF0.10033462941646576
aF-0.019919387996196747
aF0.12801311910152435
aF0.009959693998098373
aF0.12801311910152435
aaaa(lp320
aa(lp321
F0.058506231755018234
aF0.004855060949921608
aF0.1901424527168274
aF-1.1641532182693481e-10
aF0.02090156264603138
aF0.0827939510345459
aa(lp322
F0.10853602737188339
aF-0.055365290492773056
aF0.35160374641418457
aF0.20481903851032257
aF0.1612456887960434
aF0.09283538907766342
aaI0
aaa(lp323
F1363685039.829
a(lp324
(lp325
I1363685044
aI512042
aa(lp326
(lp327
(lp328
I0
aF0.006639785598963499
aF0.08995519578456879
aF0.23903250694274902
aF0.24910666048526764
aa(lp329
I-1
aF0.0
ag9
a(lp330
F0.03319896012544632
aF0.06573646515607834
aF0.03319896012544632
aF0.06573646515607834
aF0.06639792025089264
aF0.055357031524181366
aF0.053118348121643066
aF0.04843740910291672
aF0.053118348121643066
aF0.062276653945446014
aF0.05975813418626785
aF0.04843740910291672
aF0.04315865412354469
aF0.04843740910291672
aa(lp331
F-0.03319896012544632
aF0.062276653945446014
aF-0.023239297792315483
aF0.06573646515607834
aF-0.04647853225469589
aF0.055357031524181366
aF-0.03651886805891991
aF0.04843740910291672
aF-0.03651886805891991
aF0.06573646515607834
aF-0.026559142395853996
aF0.04843740910291672
aF-0.039838775992393494
aF0.04843740910291672
aa(lp332
F0.023239266127347946
aF0.038057975471019745
aF0.04315865412354469
aF0.03459816426038742
aF0.5345032811164856
aF-0.41863757371902466
aa(lp333
F0.503125011920929
aF0.5458333492279053
aF0.53125
aF0.5416666865348816
aF-0.0031250000465661287
aF-0.004166666883975267
aa(lp334
F0.009959693998098373
aF0.1210934966802597
aF0.026559174060821533
aF0.1210934966802597
aF-0.009959662333130836
aF0.1210934966802597
aa(lp335
F0.04647853225469589
aF0.17299072444438934
aF-0.023239297792315483
aF0.17299072444438934
aF0.013279571197926998
aF0.15915147960186005
aF0.013279571197926998
aF0.19028982520103455
aF0.03319896012544632
aF0.15915147960186005
aF-0.003319908631965518
aF0.15915147960186005
aF-0.003319908631965518
aF0.1833702027797699
aF0.03319896012544632
aF0.1833702027797699
aaaa(lp336
aa(lp337
F0.05849871411919594
aF0.004944802261888981
aF0.1901424527168274
aF-2.3283064365386963e-10
aF0.02090156264603138
aF0.08432792872190475
aa(lp338
F0.10862194746732712
aF-0.055323127657175064
aF0.35167619585990906
aF0.20520122349262238
aF0.16120131313800812
aF0.09438376873731613
aaI0
aaa(lp339
F1363685040.172
a(lp340
(lp341
I1363685045
aI12218
aa(lp342
(lp343
(lp344
I0
aF0.029879052191972733
aF0.04151778668165207
aF0.27887123823165894
aF0.2906244397163391
aa(lp345
I-1
aF0.0
ag9
a(lp346
F0.06639792025089264
aF0.010379434563219547
aF0.06639792025089264
aF0.010379434563219547
aF0.09959688037633896
aF0.0
aF0.0829973965883255
aF-0.013839269988238811
aF0.0829973965883255
aF0.006919622886925936
aF0.09295709431171417
aF-0.013839269988238811
aF0.07303770631551743
aF-0.013839269988238811
aa(lp347
F-0.01659948006272316
aF0.003459811443462968
aF-0.006639817263931036
aF0.0
aF-0.03651886805891991
aF0.0
aF-0.019919387996196747
aF-0.013839269988238811
aF-0.019919387996196747
aF0.013839245773851871
aF-0.009959662333130836
aF-0.013839269988238811
aF-0.026559142395853996
aF-0.013839269988238811
aa(lp348
F0.053118348121643066
aF-0.020758893340826035
aF0.07635761797428131
aF-0.027678515762090683
aF0.5345032811164856
aF-0.41863757371902466
aa(lp349
F0.484375
aF0.4749999940395355
aF0.512499988079071
aF0.46666666865348816
aF-0.0031250000465661287
aF-0.004166666883975267
aa(lp350
F0.03319896012544632
aF0.07611589878797531
aF0.053118348121643066
aF0.07611589878797531
aF0.009959693998098373
aF0.07611589878797531
aa(lp351
F0.07635761797428131
aF0.13493278622627258
aF-0.006639817263931036
aF0.13493278622627258
aF0.039838746190071106
aF0.11763369292020798
aF0.039838746190071106
aF0.1522318422794342
aF0.05975813418626785
aF0.11763369292020798
aF0.01659948006272316
aF0.11763369292020798
aF0.01659948006272316
aF0.14531221985816956
aF0.05975813418626785
aF0.1383925974369049
aaaa(lp352
aa(lp353
F0.05849871411919594
aF0.004944802261888981
aF0.1901424527168274
aF-2.3283064365386963e-10
aF0.02090156264603138
aF0.08432792872190475
aa(lp354
F0.10862238705158234
aF-0.055317457765340805
aF0.35166797041893005
aF0.2051863670349121
aF0.16121704876422882
aF0.09437784552574158
aaI0
aaa(lp355
F1363685040.528
a(lp356
(lp357
I1363685045
aI512401
aa(lp358
(lp359
(lp360
I0
aF0.004979831166565418
aF0.0017299304017797112
aF0.3685084581375122
aF0.38403943181037903
aa(lp361
I-1
aF0.0
ag9
a(lp362
F0.056438226252794266
aF-0.055357031524181366
aF0.056438226252794266
aF-0.055357031524181366
aF0.07635761797428131
aF-0.04497759789228439
aF0.06639792025089264
aF-0.062276653945446014
aF0.06639792025089264
aF-0.038057949393987656
aF0.07303770631551743
aF-0.062276653945446014
aF0.05975813418626785
aF-0.062276653945446014
aa(lp363
F-0.05643825605511665
aF-0.04843740910291672
aF-0.039838775992393494
aF-0.062276653945446014
aF-0.07303773611783981
aF-0.062276653945446014
aF-0.05643825605511665
aF-0.06919629871845245
aF-0.05643825605511665
aF-0.04497759789228439
aF-0.04647853225469589
aF-0.06919629871845245
aF-0.06307800859212875
aF-0.06919629871845245
aa(lp364
F0.03319896012544632
aF-0.07957573980093002
aF0.06307800859212875
aF-0.08649536222219467
aF0.5345032811164856
aF-0.41863757371902466
aa(lp365
F0.5062500238418579
aF0.40416666865348816
aF0.550000011920929
aF0.3916666805744171
aF-0.0031250000465661287
aF-0.004166666883975267
aa(lp366
F-0.013279571197926998
aF0.04497759789228439
aF0.003319908631965518
aF0.04497759789228439
aF-0.029879052191972733
aF0.04497759789228439
aa(lp367
F0.06307800859212875
aF0.12455330789089203
aF-0.04647853225469589
aF0.11763369292020798
aF0.009959693998098373
aF0.09687481820583344
aF0.009959693998098373
aF0.14185240864753723
aF0.039838746190071106
aF0.09687481820583344
aF-0.01659948006272316
aF0.09687481820583344
aF-0.01659948006272316
aF0.13147297501564026
aF0.039838746190071106
aF0.13147297501564026
aaaa(lp368
aa(lp369
F0.05849871411919594
aF0.004944802261888981
aF0.1901424527168274
aF-2.3283064365386963e-10
aF0.02090156264603138
aF0.08432792872190475
aa(lp370
F0.1085677221417427
aF-0.05529579520225525
aF0.3516569137573242
aF0.20509392023086548
aF0.16103272140026093
aF0.09436655044555664
aaI0
aaa(lp371
F1363685040.906
a(lp372
(lp373
I1363685045
aI512401
aa(lp374
(lp375
(lp376
I0
aF0.004979831166565418
aF0.0017299304017797112
aF0.3685084581375122
aF0.38403943181037903
aa(lp377
I-1
aF0.0
ag9
a(lp378
F0.056438226252794266
aF-0.055357031524181366
aF0.056438226252794266
aF-0.055357031524181366
aF0.07635761797428131
aF-0.04497759789228439
aF0.06639792025089264
aF-0.062276653945446014
aF0.06639792025089264
aF-0.038057949393987656
aF0.07303770631551743
aF-0.062276653945446014
aF0.05975813418626785
aF-0.062276653945446014
aa(lp379
F-0.05643825605511665
aF-0.04843740910291672
aF-0.039838775992393494
aF-0.062276653945446014
aF-0.07303773611783981
aF-0.062276653945446014
aF-0.05643825605511665
aF-0.06919629871845245
aF-0.05643825605511665
aF-0.04497759789228439
aF-0.04647853225469589
aF-0.06919629871845245
aF-0.06307800859212875
aF-0.06919629871845245
aa(lp380
F0.03319896012544632
aF-0.07957573980093002
aF0.06307800859212875
aF-0.08649536222219467
aF0.5345032811164856
aF-0.41863757371902466
aa(lp381
F0.5062500238418579
aF0.40416666865348816
aF0.550000011920929
aF0.3916666805744171
aF-0.0031250000465661287
aF-0.004166666883975267
aa(lp382
F-0.013279571197926998
aF0.04497759789228439
aF0.003319908631965518
aF0.04497759789228439
aF-0.029879052191972733
aF0.04497759789228439
aa(lp383
F0.06307800859212875
aF0.12455330789089203
aF-0.04647853225469589
aF0.11763369292020798
aF0.009959693998098373
aF0.09687481820583344
aF0.009959693998098373
aF0.14185240864753723
aF0.039838746190071106
aF0.09687481820583344
aF-0.01659948006272316
aF0.09687481820583344
aF-0.01659948006272316
aF0.13147297501564026
aF0.039838746190071106
aF0.13147297501564026
aaaa(lp384
aa(lp385
F0.05849871411919594
aF0.004944802261888981
aF0.1901424527168274
aF-2.3283064365386963e-10
aF0.02090156264603138
aF0.08432792872190475
aa(lp386
F0.1085677221417427
aF-0.05529579520225525
aF0.3516569137573242
aF0.20509392023086548
aF0.16103272140026093
aF0.09436655044555664
aaI0
aaa(lp387
F1363685041.281
a(lp388
(lp389
I1363685045
aI979234
aa(lp390
(lp391
(lp392
I0
aF-0.01659948006272316
aF-0.006919622886925936
aF0.4183069169521332
aF0.4359366297721863
aa(lp393
I-1
aF0.0
ag9
a(lp394
F0.04315865412354469
aF-0.062276653945446014
aF0.04315865412354469
aF-0.062276653945446014
aF0.08631730824708939
aF-0.062276653945446014
aF0.06639792025089264
aF-0.07265610992908478
aF0.06639792025089264
aF-0.04843740910291672
aF0.07967749238014221
aF-0.07265610992908478
aF0.056438226252794266
aF-0.07265610992908478
aa(lp395
F-0.0829973965883255
aF-0.06573648750782013
aF-0.06639792025089264
aF-0.06919629871845245
aF-0.10955654084682465
aF-0.06919629871845245
aF-0.0829973965883255
aF-0.07957573980093002
aF-0.0829973965883255
aF-0.04843740910291672
aF-0.07303773611783981
aF-0.07957573980093002
aF-0.09627696871757507
aF-0.07957573980093002
aa(lp396
F0.023239266127347946
aF-0.09341500699520111
aF0.053118348121643066
aF-0.10033462941646576
aF0.5345032811164856
aF-0.41863757371902466
aa(lp397
F0.53125
aF0.38749998807907104
aF0.574999988079071
aF0.3708333373069763
aF-0.0031250000465661287
aF-0.004166666883975267
aa(lp398
F-0.03651886805891991
aF0.062276653945446014
aF-0.01659948006272316
aF0.062276653945446014
aF-0.06307800859212875
aF0.062276653945446014
aa(lp399
F0.053118348121643066
aF0.14185240864753723
aF-0.07303773611783981
aF0.1383925974369049
aF-0.006639817263931036
aF0.11763369292020798
aF-0.006639817263931036
aF0.17645053565502167
aF0.023239266127347946
aF0.11763369292020798
aF-0.039838775992393494
aF0.11763369292020798
aF-0.039838775992393494
aF0.14877203106880188
aF0.023239266127347946
aF0.14877203106880188
aaaa(lp400
aa(lp401
F0.058595921844244
aF0.004953019320964813
aF0.190052330493927
aF-2.3283064365386963e-10
aF0.022435547783970833
aF0.08432792872190475
aa(lp402
F0.10861627757549286
aF-0.05525306612253189
aF0.3515262305736542
aF0.20508652925491333
aF0.16244269907474518
aF0.09467367827892303
aaI0
aaa(lp403
F1363685041.665
a(lp404
(lp405
I1363685046
aI479417
aa(lp406
(lp407
(lp408
I0
aF-0.006639817263931036
aF0.010379434563219547
aF0.3784681260585785
aF0.394418865442276
aa(lp409
I-1
aF0.0
ag9
a(lp410
F0.04315865412354469
aF-0.04151778668165207
aF0.04315865412354469
aF-0.04151778668165207
aF0.08963718265295029
aF-0.03459813818335533
aF0.06639792025089264
aF-0.05189722031354904
aF0.06639792025089264
aF-0.04151778668165207
aF0.07967749238014221
aF-0.04843740910291672
aF0.056438226252794266
aF-0.05189722031354904
aa(lp411
F-0.06971783190965652
aF-0.038057949393987656
aF-0.053118348121643066
aF-0.04151778668165207
aF-0.08631730824708939
aF-0.04843740910291672
aF-0.06971783190965652
aF-0.05189722031354904
aF-0.06971783190965652
aF-0.04843740910291672
aF-0.059758104383945465
aF-0.05189722031354904
aF-0.07635758072137833
aF-0.05189722031354904
aa(lp412
F0.026559174060821533
aF-0.06919629871845245
aF0.056438226252794266
aF-0.06919629871845245
aF0.5345032811164856
aF-0.41863757371902466
aa(lp413
F0.5218750238418579
aF0.4166666567325592
aF0.5625
aF0.40833333134651184
aF-0.0031250000465661287
aF-0.004166666883975267
aa(lp414
F-0.009959662333130836
aF0.06919627636671066
aF0.019919387996196747
aF0.06919627636671066
aF-0.043158624321222305
aF0.06919627636671066
aa(lp415
F0.053118348121643066
aF0.15569165349006653
aF-0.059758104383945465
aF0.14531221985816956
aF-0.0
aF0.12801311910152435
aF-0.0
aF0.1972094476222992
aF0.026559174060821533
aF0.13147297501564026
aF-0.029879052191972733
aF0.12801311910152435
aF-0.029879052191972733
aF0.179910346865654
aF0.026559174060821533
aF0.179910346865654
aaaa(lp416
aa(lp417
F0.05849871411919594
aF0.004944802261888981
aF0.1901424527168274
aF-2.3283064365386963e-10
aF0.02090156264603138
aF0.08432792872190475
aa(lp418
F0.1087580993771553
aF-0.05539163202047348
aF0.3516542613506317
aF0.20549465715885162
aF0.1616625040769577
aF0.09443087130784988
aaI0
aaa(lp419
F1363685042.056
a(lp420
(lp421
I1363685046
aI479417
aa(lp422
(lp423
(lp424
I0
aF-0.006639817263931036
aF0.010379434563219547
aF0.3784681260585785
aF0.394418865442276
aa(lp425
I-1
aF0.0
ag9
a(lp426
F0.04315865412354469
aF-0.04151778668165207
aF0.04315865412354469
aF-0.04151778668165207
aF0.08963718265295029
aF-0.03459813818335533
aF0.06639792025089264
aF-0.05189722031354904
aF0.06639792025089264
aF-0.04151778668165207
aF0.07967749238014221
aF-0.04843740910291672
aF0.056438226252794266
aF-0.05189722031354904
aa(lp427
F-0.06971783190965652
aF-0.038057949393987656
aF-0.053118348121643066
aF-0.04151778668165207
aF-0.08631730824708939
aF-0.04843740910291672
aF-0.06971783190965652
aF-0.05189722031354904
aF-0.06971783190965652
aF-0.04843740910291672
aF-0.059758104383945465
aF-0.05189722031354904
aF-0.07635758072137833
aF-0.05189722031354904
aa(lp428
F0.026559174060821533
aF-0.06919629871845245
aF0.056438226252794266
aF-0.06919629871845245
aF0.5345032811164856
aF-0.41863757371902466
aa(lp429
F0.5218750238418579
aF0.4166666567325592
aF0.5625
aF0.40833333134651184
aF-0.0031250000465661287
aF-0.004166666883975267
aa(lp430
F-0.009959662333130836
aF0.06919627636671066
aF0.019919387996196747
aF0.06919627636671066
aF-0.043158624321222305
aF0.06919627636671066
aa(lp431
F0.053118348121643066
aF0.15569165349006653
aF-0.059758104383945465
aF0.14531221985816956
aF-0.0
aF0.12801311910152435
aF-0.0
aF0.1972094476222992
aF0.026559174060821533
aF0.13147297501564026
aF-0.029879052191972733
aF0.12801311910152435
aF-0.029879052191972733
aF0.179910346865654
aF0.026559174060821533
aF0.179910346865654
aaaa(lp432
aa(lp433
F0.05849871411919594
aF0.004944802261888981
aF0.1901424527168274
aF-2.3283064365386963e-10
aF0.02090156264603138
aF0.08432792872190475
aa(lp434
F0.1087580993771553
aF-0.05539163202047348
aF0.3516542613506317
aF0.20549465715885162
aF0.1616625040769577
aF0.09443087130784988
aaI0
aaa(lp435
F1363685042.433
a(lp436
(lp437
I1363685047
aI46290
aa(lp438
(lp439
(lp440
I0
aF0.013279571197926998
aF-0.003459811443462968
aF0.27887123823165894
aF0.2906244397163391
aa(lp441
I-1
aF0.0
ag9
a(lp442
F0.04979844018816948
aF-0.038057949393987656
aF0.04979844018816948
aF-0.038057949393987656
aF0.07635761797428131
aF-0.04151778668165207
aF0.06307800859212875
aF-0.04843740910291672
aF0.06307800859212875
aF-0.03459813818335533
aF0.07303770631551743
aF-0.05189722031354904
aF0.05975813418626785
aF-0.04843740910291672
aa(lp443
F-0.03319896012544632
aF-0.03459813818335533
aF-0.01659948006272316
aF-0.04843740910291672
aF-0.04647853225469589
aF-0.04843740910291672
aF-0.029879052191972733
aF-0.05189722031354904
aF-0.029879052191972733
aF-0.03459813818335533
aF-0.019919387996196747
aF-0.05189722031354904
aF-0.039838775992393494
aF-0.055357031524181366
aa(lp444
F0.03319896012544632
aF-0.06573648750782013
aF0.056438226252794266
aF-0.06573648750782013
aF0.5345032811164856
aF-0.41863757371902466
aa(lp445
F0.5
aF0.4208333194255829
aF0.528124988079071
aF0.4166666567325592
aF-0.0031250000465661287
aF-0.004166666883975267
aa(lp446
F0.009959693998098373
aF0.031138351187109947
aF0.03319896012544632
aF0.031138351187109947
aF-0.009959662333130836
aF0.031138351187109947
aa(lp447
F0.056438226252794266
aF0.08995519578456879
aF-0.026559142395853996
aF0.08995519578456879
aF0.01659948006272316
aF0.07265608757734299
aF0.01659948006272316
aF0.1210934966802597
aF0.039838746190071106
aF0.07611589878797531
aF-0.003319908631965518
aF0.07265608757734299
aF-0.003319908631965518
aF0.10725425183773041
aF0.039838746190071106
aF0.10725425183773041
aaaa(lp448
aa(lp449
F0.058506231755018234
aF0.004855060949921608
aF0.1901424527168274
aF-1.1641532182693481e-10
aF0.02090156264603138
aF0.0827939510345459
aa(lp450
F0.10873328894376755
aF-0.055464521050453186
aF0.35165661573410034
aF0.20524846017360687
aF0.16192279756069183
aF0.09290431439876556
aaI0
aaa(lp451
F1363685042.824
a(lp452
(lp453
I1363685047
aI479778
aa(lp454
(lp455
(lp456
I0
aF0.009959693998098373
aF-0.013839269988238811
aF0.23903250694274902
aF0.24910666048526764
aa(lp457
I-1
aF0.0
ag9
a(lp458
F0.04315865412354469
aF-0.04843740910291672
aF0.04315865412354469
aF-0.04843740910291672
aF0.06639792025089264
aF-0.04497759789228439
aF0.056438226252794266
aF-0.05189722031354904
aF0.056438226252794266
aF-0.038057949393987656
aF0.06307800859212875
aF-0.05189722031354904
aF0.04979844018816948
aF-0.05189722031354904
aa(lp459
F-0.029879052191972733
aF-0.04497759789228439
aF-0.019919387996196747
aF-0.04497759789228439
aF-0.043158624321222305
aF-0.05189722031354904
aF-0.03319896012544632
aF-0.05881684273481369
aF-0.03319896012544632
aF-0.04151778668165207
aF-0.023239297792315483
aF-0.05881684273481369
aF-0.03651886805891991
aF-0.05881684273481369
aa(lp460
F0.026559174060821533
aF-0.06573648750782013
aF0.04979844018816948
aF-0.06919629871845245
aF0.5345032811164856
aF-0.41863757371902466
aa(lp461
F0.503125011920929
aF0.4166666567325592
aF0.5249999761581421
aF0.4124999940395355
aF-0.0031250000465661287
aF-0.004166666883975267
aa(lp462
F0.006639785598963499
aF0.013839245773851871
aF0.026559174060821533
aF0.013839245773851871
aF-0.009959662333130836
aF0.013839245773851871
aa(lp463
F0.04647853225469589
aF0.06919627636671066
aF-0.026559142395853996
aF0.062276653945446014
aF0.013279571197926998
aF0.055357031524181366
aF0.013279571197926998
aF0.09341500699520111
aF0.029879052191972733
aF0.055357031524181366
aF-0.006639817263931036
aF0.055357031524181366
aF-0.006639817263931036
aF0.08649538457393646
aF0.029879052191972733
aF0.08303557336330414
aaaa(lp464
aa(lp465
F0.05849871411919594
aF0.004944802261888981
aF0.1901424527168274
aF-2.3283064365386963e-10
aF0.02090156264603138
aF0.08432792872190475
aa(lp466
F0.10854558646678925
aF-0.05528423190116882
aF0.3516520857810974
aF0.20504982769489288
aF0.16096404194831848
aF0.0943622887134552
aaI0
aaa(lp467
F1363685043.213
a(lp468
(lp469
I1363685047
aI979960
aa(lp470
(lp471
(lp472
I0
aF0.00829974003136158
aF-0.005189717281609774
aF0.22907282412052155
aF0.23872721195220947
aa(lp473
I-1
aF0.0
ag9
a(lp474
F0.03651886805891991
aF-0.020758893340826035
aF0.03651886805891991
aF-0.020758893340826035
aF0.06307800859212875
aF-0.031138326972723007
aF0.04979844018816948
aF-0.038057949393987656
aF0.04979844018816948
aF-0.02421870455145836
aF0.056438226252794266
aF-0.038057949393987656
aF0.04315865412354469
aF-0.04151778668165207
aa(lp475
F-0.026559142395853996
aF-0.038057949393987656
aF-0.019919387996196747
aF-0.031138326972723007
aF-0.03319896012544632
aF-0.04151778668165207
aF-0.026559142395853996
aF-0.04497759789228439
aF-0.026559142395853996
aF-0.031138326972723007
aF-0.023239297792315483
aF-0.04497759789228439
aF-0.029879052191972733
aF-0.04843740910291672
aa(lp476
F0.029879052191972733
aF-0.05189722031354904
aF0.04647853225469589
aF-0.05189722031354904
aF0.5345032811164856
aF-0.41863757371902466
aa(lp477
F0.49687498807907104
aF0.4333333373069763
aF0.5249999761581421
aF0.42500001192092896
aF-0.0031250000465661287
aF-0.004166666883975267
aa(lp478
F0.006639785598963499
aF0.02421868033707142
aF0.026559174060821533
aF0.02421868033707142
aF-0.009959662333130836
aF0.02421868033707142
aa(lp479
F0.04315865412354469
aF0.07611589878797531
aF-0.023239297792315483
aF0.06919627636671066
aF0.013279571197926998
aF0.05881684273481369
aF0.013279571197926998
aF0.10033462941646576
aF0.029879052191972733
aF0.05881684273481369
aF-0.003319908631965518
aF0.05881684273481369
aF-0.003319908631965518
aF0.08995519578456879
aF0.029879052191972733
aF0.08995519578456879
aaaa(lp480
aa(lp481
F0.05849871411919594
aF0.004944802261888981
aF0.1901424527168274
aF-2.3283064365386963e-10
aF0.02090156264603138
aF0.08432792872190475
aa(lp482
F0.1085604727268219
aF-0.05529215559363365
aF0.3516544699668884
aF0.20508402585983276
aF0.16101695597171783
aF0.09436488151550293
aaI0
aaa(lp483
F1363685043.606
a(lp484
(lp485
I1363685048
aI513479
aa(lp486
(lp487
(lp488
I0
aF0.011619648896157742
aF-0.14012248814105988
aF0.2489922046661377
aF0.2594861090183258
aa(lp489
I-1
aF0.0
ag9
a(lp490
F0.04315865412354469
aF-0.15915147960186005
aF0.04315865412354469
aF-0.15915147960186005
aF0.07303770631551743
aF-0.15915147960186005
aF0.05975813418626785
aF-0.1833701729774475
aF0.05975813418626785
aF-0.15915147960186005
aF0.06639792025089264
aF-0.18682998418807983
aF0.04979844018816948
aF-0.1833701729774475
aa(lp491
F-0.029879052191972733
aF-0.17299073934555054
aF-0.019919387996196747
aF-0.17645055055618286
aF-0.029879052191972733
aF-0.17299073934555054
aF-0.026559142395853996
aF-0.1833701729774475
aF-0.026559142395853996
aF-0.17299073934555054
aF-0.019919387996196747
aF-0.1833701729774475
aF-0.026559142395853996
aF-0.1833701729774475
aa(lp492
F0.5345032811164856
aF-0.41863757371902466
aF0.5311833620071411
aF-0.41863757371902466
aF0.5345032811164856
aF-0.41863757371902466
aa(lp493
F-0.0031250000465661287
aF-0.004166666883975267
aF-0.0031250000465661287
aF-0.004166666883975267
aF-0.0031250000465661287
aF-0.004166666883975267
aa(lp494
F0.01659948006272316
aF-0.11071406304836273
aF0.03319896012544632
aF-0.11071406304836273
aF-0.003319908631965518
aF-0.11071406304836273
aa(lp495
F0.04979844018816948
aF-0.055357031524181366
aF-0.029879052191972733
aF-0.062276653945446014
aF0.013279571197926998
aF-0.07957573980093002
aF0.013279571197926998
aF-0.031138326972723007
aF0.03319896012544632
aF-0.0761159211397171
aF-0.006639817263931036
aF-0.07957573980093002
aF-0.006639817263931036
aF-0.038057949393987656
aF0.03319896012544632
aF-0.038057949393987656
aaaa(lp496
aa(lp497
F0.05849871411919594
aF0.004944802261888981
aF0.1901424527168274
aF-2.3283064365386963e-10
aF0.02090156264603138
aF0.08432792872190475
aa(lp498
F0.1084410771727562
aF-0.055232081562280655
aF0.3516152501106262
aF0.20485076308250427
aF0.16065014898777008
aF0.09432753920555115
aaI0
aaa(lp499
F1363685043.982
a(lp500
(lp501
I1363685048
aI513479
aa(lp502
(lp503
(lp504
I0
aF0.011619648896157742
aF-0.14012248814105988
aF0.2489922046661377
aF0.2594861090183258
aa(lp505
I-1
aF0.0
ag9
a(lp506
F0.04315865412354469
aF-0.15915147960186005
aF0.04315865412354469
aF-0.15915147960186005
aF0.07303770631551743
aF-0.15915147960186005
aF0.05975813418626785
aF-0.1833701729774475
aF0.05975813418626785
aF-0.15915147960186005
aF0.06639792025089264
aF-0.18682998418807983
aF0.04979844018816948
aF-0.1833701729774475
aa(lp507
F-0.029879052191972733
aF-0.17299073934555054
aF-0.019919387996196747
aF-0.17645055055618286
aF-0.029879052191972733
aF-0.17299073934555054
aF-0.026559142395853996
aF-0.1833701729774475
aF-0.026559142395853996
aF-0.17299073934555054
aF-0.019919387996196747
aF-0.1833701729774475
aF-0.026559142395853996
aF-0.1833701729774475
aa(lp508
F0.5345032811164856
aF-0.41863757371902466
aF0.5311833620071411
aF-0.41863757371902466
aF0.5345032811164856
aF-0.41863757371902466
aa(lp509
F-0.0031250000465661287
aF-0.004166666883975267
aF-0.0031250000465661287
aF-0.004166666883975267
aF-0.0031250000465661287
aF-0.004166666883975267
aa(lp510
F0.01659948006272316
aF-0.11071406304836273
aF0.03319896012544632
aF-0.11071406304836273
aF-0.003319908631965518
aF-0.11071406304836273
aa(lp511
F0.04979844018816948
aF-0.055357031524181366
aF-0.029879052191972733
aF-0.062276653945446014
aF0.013279571197926998
aF-0.07957573980093002
aF0.013279571197926998
aF-0.031138326972723007
aF0.03319896012544632
aF-0.0761159211397171
aF-0.006639817263931036
aF-0.07957573980093002
aF-0.006639817263931036
aF-0.038057949393987656
aF0.03319896012544632
aF-0.038057949393987656
aaaa(lp512
aa(lp513
F0.05849871411919594
aF0.004944802261888981
aF0.1901424527168274
aF-2.3283064365386963e-10
aF0.02090156264603138
aF0.08432792872190475
aa(lp514
F0.1084410771727562
aF-0.055232081562280655
aF0.3516152501106262
aF0.20485076308250427
aF0.16065014898777008
aF0.09432753920555115
aaI0
aaa(lp515
F1363685050.618
a(lp516
(lp517
I1363685055
aI549353
aa(lp518
(lp519
(lp520
I0
aF-0.006639817263931036
aF-0.031138326972723007
aF0.23903250694274902
aF0.24910666048526764
aa(lp521
I-1
aF0.0
ag9
a(lp522
F0.023239266127347946
aF-0.055357031524181366
aF0.023239266127347946
aF-0.055357031524181366
aF0.053118348121643066
aF-0.05881684273481369
aF0.039838746190071106
aF-0.07265610992908478
aF0.039838746190071106
aF-0.05881684273481369
aF0.04647853225469589
aF-0.07265610992908478
aF0.03319896012544632
aF-0.07265610992908478
aa(lp523
F-0.04647853225469589
aF-0.062276653945446014
aF-0.03651886805891991
aF-0.062276653945446014
aF-0.059758104383945465
aF-0.062276653945446014
aF-0.04647853225469589
aF-0.0761159211397171
aF-0.04647853225469589
aF-0.062276653945446014
aF-0.039838775992393494
aF-0.0761159211397171
aF-0.053118348121643066
aF-0.0761159211397171
aa(lp524
F0.013279571197926998
aF-0.089955173432827
aF0.03319896012544632
aF-0.089955173432827
aF0.5345032811164856
aF-0.41863757371902466
aa(lp525
F0.512499988079071
aF0.3916666805744171
aF0.543749988079071
aF0.38333332538604736
aF-0.0031250000465661287
aF-0.004166666883975267
aa(lp526
F-0.006639817263931036
aF-0.010379434563219547
aF0.013279571197926998
aF-0.010379434563219547
aF-0.023239297792315483
aF-0.010379434563219547
aa(lp527
F0.029879052191972733
aF0.04151778668165207
aF-0.03651886805891991
aF0.03459816426038742
aF-0.0
aF0.020758869126439095
aF-0.0
aF0.05189722031354904
aF0.01659948006272316
aF0.020758869126439095
aF-0.01659948006272316
aF0.020758869126439095
aF-0.01659948006272316
aF0.04151778668165207
aF0.01659948006272316
aF0.04497759789228439
aaaa(lp528
aa(lp529
F0.05849871411919594
aF0.004944802261888981
aF0.1901424527168274
aF-2.3283064365386963e-10
aF0.02090156264603138
aF0.08432792872190475
aa(lp530
F0.10858462005853653
aF-0.05530373007059097
aF0.35165396332740784
aF0.2051449865102768
aF0.16111569106578827
aF0.09437397867441177
aaI0
aaa(lp531
F1363685050.904
a(lp532
(lp533
I1363685055
aI549353
aa(lp534
(lp535
(lp536
I0
aF-0.006639817263931036
aF-0.031138326972723007
aF0.23903250694274902
aF0.24910666048526764
aa(lp537
I-1
aF0.0
ag9
a(lp538
F0.023239266127347946
aF-0.055357031524181366
aF0.023239266127347946
aF-0.055357031524181366
aF0.053118348121643066
aF-0.05881684273481369
aF0.039838746190071106
aF-0.07265610992908478
aF0.039838746190071106
aF-0.05881684273481369
aF0.04647853225469589
aF-0.07265610992908478
aF0.03319896012544632
aF-0.07265610992908478
aa(lp539
F-0.04647853225469589
aF-0.062276653945446014
aF-0.03651886805891991
aF-0.062276653945446014
aF-0.059758104383945465
aF-0.062276653945446014
aF-0.04647853225469589
aF-0.0761159211397171
aF-0.04647853225469589
aF-0.062276653945446014
aF-0.039838775992393494
aF-0.0761159211397171
aF-0.053118348121643066
aF-0.0761159211397171
aa(lp540
F0.013279571197926998
aF-0.089955173432827
aF0.03319896012544632
aF-0.089955173432827
aF0.5345032811164856
aF-0.41863757371902466
aa(lp541
F0.512499988079071
aF0.3916666805744171
aF0.543749988079071
aF0.38333332538604736
aF-0.0031250000465661287
aF-0.004166666883975267
aa(lp542
F-0.006639817263931036
aF-0.010379434563219547
aF0.013279571197926998
aF-0.010379434563219547
aF-0.023239297792315483
aF-0.010379434563219547
aa(lp543
F0.029879052191972733
aF0.04151778668165207
aF-0.03651886805891991
aF0.03459816426038742
aF-0.0
aF0.020758869126439095
aF-0.0
aF0.05189722031354904
aF0.01659948006272316
aF0.020758869126439095
aF-0.01659948006272316
aF0.020758869126439095
aF-0.01659948006272316
aF0.04151778668165207
aF0.01659948006272316
aF0.04497759789228439
aaaa(lp544
aa(lp545
F0.05849871411919594
aF0.004944802261888981
aF0.1901424527168274
aF-2.3283064365386963e-10
aF0.02090156264603138
aF0.08432792872190475
aa(lp546
F0.10858462005853653
aF-0.05530373007059097
aF0.35165396332740784
aF0.2051449865102768
aF0.16111569106578827
aF0.09437397867441177
aaI0
aaa(lp547
F1363685051.235
a(lp548
(lp549
I1363685056
aI16202
aa(lp550
(lp551
(lp552
I0
aF0.009959693998098373
aF0.04497759789228439
aF0.21911312639713287
aF0.2283477783203125
aa(lp553
I-1
aF0.0
ag9
a(lp554
F0.03651886805891991
aF0.01729905605316162
aF0.03651886805891991
aF0.01729905605316162
aF0.06639792025089264
aF0.01729905605316162
aF0.053118348121643066
aF0.006919622886925936
aF0.053118348121643066
aF0.020758869126439095
aF0.05975813418626785
aF0.010379434563219547
aF0.04647853225469589
aF0.006919622886925936
aa(lp555
F-0.026559142395853996
aF0.01729905605316162
aF-0.009959662333130836
aF0.020758869126439095
aF-0.03319896012544632
aF0.010379434563219547
aF-0.019919387996196747
aF0.003459811443462968
aF-0.019919387996196747
aF0.01729905605316162
aF-0.013279571197926998
aF0.003459811443462968
aF-0.026559142395853996
aF0.003459811443462968
aa(lp556
F0.026559174060821533
aF-0.010379434563219547
aF0.04315865412354469
aF-0.010379434563219547
aF0.5345032811164856
aF-0.41863757371902466
aa(lp557
F0.4937500059604645
aF0.4833333194255829
aF0.5218750238418579
aF0.4791666567325592
aF-0.0031250000465661287
aF-0.004166666883975267
aa(lp558
F0.009959693998098373
aF0.05881684273481369
aF0.026559174060821533
aF0.05881684273481369
aF-0.006639817263931036
aF0.05881684273481369
aa(lp559
F0.04647853225469589
aF0.11071406304836273
aF-0.019919387996196747
aF0.10725425183773041
aF0.01659948006272316
aF0.08649538457393646
aF0.01659948006272316
aF0.1210934966802597
aF0.03319896012544632
aF0.08649538457393646
aF-0.0
aF0.08649538457393646
aF-0.0
aF0.11071406304836273
aF0.03319896012544632
aF0.11417386680841446
aaaa(lp560
aa(lp561
F0.05849871411919594
aF0.004944802261888981
aF0.1901424527168274
aF-2.3283064365386963e-10
aF0.02090156264603138
aF0.08432792872190475
aa(lp562
F0.10855691134929657
aF-0.055290285497903824
aF0.3516519069671631
aF0.20507371425628662
aF0.1610002964735031
aF0.09436282515525818
aaI0
aaa(lp563
F1363685051.579
a(lp564
(lp565
I1363685056
aI16202
aa(lp566
(lp567
(lp568
I0
aF0.009959693998098373
aF0.04497759789228439
aF0.21911312639713287
aF0.2283477783203125
aa(lp569
I-1
aF0.0
ag9
a(lp570
F0.03651886805891991
aF0.01729905605316162
aF0.03651886805891991
aF0.01729905605316162
aF0.06639792025089264
aF0.01729905605316162
aF0.053118348121643066
aF0.006919622886925936
aF0.053118348121643066
aF0.020758869126439095
aF0.05975813418626785
aF0.010379434563219547
aF0.04647853225469589
aF0.006919622886925936
aa(lp571
F-0.026559142395853996
aF0.01729905605316162
aF-0.009959662333130836
aF0.020758869126439095
aF-0.03319896012544632
aF0.010379434563219547
aF-0.019919387996196747
aF0.003459811443462968
aF-0.019919387996196747
aF0.01729905605316162
aF-0.013279571197926998
aF0.003459811443462968
aF-0.026559142395853996
aF0.003459811443462968
aa(lp572
F0.026559174060821533
aF-0.010379434563219547
aF0.04315865412354469
aF-0.010379434563219547
aF0.5345032811164856
aF-0.41863757371902466
aa(lp573
F0.4937500059604645
aF0.4833333194255829
aF0.5218750238418579
aF0.4791666567325592
aF-0.0031250000465661287
aF-0.004166666883975267
aa(lp574
F0.009959693998098373
aF0.05881684273481369
aF0.026559174060821533
aF0.05881684273481369
aF-0.006639817263931036
aF0.05881684273481369
aa(lp575
F0.04647853225469589
aF0.11071406304836273
aF-0.019919387996196747
aF0.10725425183773041
aF0.01659948006272316
aF0.08649538457393646
aF0.01659948006272316
aF0.1210934966802597
aF0.03319896012544632
aF0.08649538457393646
aF-0.0
aF0.08649538457393646
aF-0.0
aF0.11071406304836273
aF0.03319896012544632
aF0.11417386680841446
aaaa(lp576
aa(lp577
F0.05849871411919594
aF0.004944802261888981
aF0.1901424527168274
aF-2.3283064365386963e-10
aF0.02090156264603138
aF0.08432792872190475
aa(lp578
F0.10855691134929657
aF-0.055290285497903824
aF0.3516519069671631
aF0.20507371425628662
aF0.1610002964735031
aF0.09436282515525818
aaI0
aaaa.