(lp0
F1363684750.246
a(lp1
(lp2
F1363684754.051
a(lp3
(lp4
I1363684758
aI909247
aa(lp5
(lp6
(lp7
I0
aF-0.05643825605511665
aF-0.11763370782136917
aF0.17927439510822296
aF0.18682998418807983
aa(lp8
I-1
aF0.0
aS''
p9
a(lp10
F-0.026559142395853996
aF-0.12801314890384674
aF-0.026559142395853996
aF-0.12801314890384674
aF-0.013279571197926998
aF-0.12801314890384674
aF-0.019919387996196747
aF-0.14531221985816956
aF-0.019919387996196747
aF-0.12801314890384674
aF-0.01659948006272316
aF-0.14185239374637604
aF-0.023239297792315483
aF-0.14531221985816956
aa(lp11
F-0.0829973965883255
aF-0.14185239374637604
aF-0.06971783190965652
aF-0.14185239374637604
aF-0.09295706450939178
aF-0.14185239374637604
aF-0.07967749238014221
aF-0.1522318422794342
aF-0.07967749238014221
aF-0.14185239374637604
aF-0.07635758072137833
aF-0.1522318422794342
aF-0.08631730824708939
aF-0.1522318422794342
aa(lp12
F-0.039838775992393494
aF-0.16261129081249237
aF-0.026559142395853996
aF-0.16261129081249237
aF0.5345032811164856
aF-0.41863757371902466
aa(lp13
F0.5562499761581421
aF0.30000001192092896
aF0.578125
aF0.30000001192092896
aF-0.0031250000465661287
aF-0.004166666883975267
aa(lp14
F-0.059758104383945465
aF-0.10725425183773041
aF-0.043158624321222305
aF-0.10725425183773041
aF-0.07303773611783981
aF-0.10725425183773041
aa(lp15
F-0.043158624321222305
aF-0.06919629871845245
aF-0.07635758072137833
aF-0.06919629871845245
aF-0.05643825605511665
aF-0.07957573980093002
aF-0.05643825605511665
aF-0.055357031524181366
aF-0.04979844018816948
aF-0.07957573980093002
aF-0.06639792025089264
aF-0.07957573980093002
aF-0.06639792025089264
aF-0.06573648750782013
aF-0.04979844018816948
aF-0.06573648750782013
aaaa(lp16
aa(lp17
F0.021058108657598495
aF0.0017474787309765816
aF0.21046675741672516
aF0.0
aF-0.47764837741851807
aF0.0827939510345459
aa(lp18
F0.0763109028339386
aF-0.05305609852075577
aF0.3746510446071625
aF0.18352295458316803
aF-0.321734756231308
aF0.0007714022067375481
aaI0
aaa(lp19
F1363684754.326
a(lp20
(lp21
I1363684758
aI909247
aa(lp22
(lp23
(lp24
I0
aF-0.05643825605511665
aF-0.11763370782136917
aF0.17927439510822296
aF0.18682998418807983
aa(lp25
I-1
aF0.0
ag9
a(lp26
F-0.026559142395853996
aF-0.12801314890384674
aF-0.026559142395853996
aF-0.12801314890384674
aF-0.013279571197926998
aF-0.12801314890384674
aF-0.019919387996196747
aF-0.14531221985816956
aF-0.019919387996196747
aF-0.12801314890384674
aF-0.01659948006272316
aF-0.14185239374637604
aF-0.023239297792315483
aF-0.14531221985816956
aa(lp27
F-0.0829973965883255
aF-0.14185239374637604
aF-0.06971783190965652
aF-0.14185239374637604
aF-0.09295706450939178
aF-0.14185239374637604
aF-0.07967749238014221
aF-0.1522318422794342
aF-0.07967749238014221
aF-0.14185239374637604
aF-0.07635758072137833
aF-0.1522318422794342
aF-0.08631730824708939
aF-0.1522318422794342
aa(lp28
F-0.039838775992393494
aF-0.16261129081249237
aF-0.026559142395853996
aF-0.16261129081249237
aF0.5345032811164856
aF-0.41863757371902466
aa(lp29
F0.5562499761581421
aF0.30000001192092896
aF0.578125
aF0.30000001192092896
aF-0.0031250000465661287
aF-0.004166666883975267
aa(lp30
F-0.059758104383945465
aF-0.10725425183773041
aF-0.043158624321222305
aF-0.10725425183773041
aF-0.07303773611783981
aF-0.10725425183773041
aa(lp31
F-0.043158624321222305
aF-0.06919629871845245
aF-0.07635758072137833
aF-0.06919629871845245
aF-0.05643825605511665
aF-0.07957573980093002
aF-0.05643825605511665
aF-0.055357031524181366
aF-0.04979844018816948
aF-0.07957573980093002
aF-0.06639792025089264
aF-0.07957573980093002
aF-0.06639792025089264
aF-0.06573648750782013
aF-0.04979844018816948
aF-0.06573648750782013
aaaa(lp32
aa(lp33
F0.021058108657598495
aF0.0017474787309765816
aF0.21046675741672516
aF0.0
aF-0.47764837741851807
aF0.0827939510345459
aa(lp34
F0.0763109028339386
aF-0.05305609852075577
aF0.3746510446071625
aF0.18352295458316803
aF-0.321734756231308
aF0.0007714022067375481
aaI0
aaa(lp35
F1363684754.662
a(lp36
(lp37
I1363684759
aI376077
aa(lp38
(lp39
(lp40
I0
aF-0.06473799794912338
aF-0.0986047238111496
aF0.26891160011291504
aF0.28024500608444214
aa(lp41
I-1
aF0.0
ag9
a(lp42
F-0.03319896012544632
aF-0.12455333024263382
aF-0.03319896012544632
aF-0.12455333024263382
aF0.003319908631965518
aF-0.12455333024263382
aF-0.013279571197926998
aF-0.14531221985816956
aF-0.013279571197926998
aF-0.12801314890384674
aF-0.006639817263931036
aF-0.14531221985816956
aF-0.019919387996196747
aF-0.14531221985816956
aa(lp43
F-0.10955654084682465
aF-0.1349327713251114
aF-0.09295706450939178
aF-0.13147296011447906
aF-0.129475936293602
aF-0.14185239374637604
aF-0.10955654084682465
aF-0.1522318422794342
aF-0.10955654084682465
aF-0.1349327713251114
aF-0.09959688037633896
aF-0.1522318422794342
aF-0.11619635671377182
aF-0.1522318422794342
aa(lp44
F-0.043158624321222305
aF-0.1660711020231247
aF-0.019919387996196747
aF-0.1695309281349182
aF0.5345032811164856
aF-0.41863757371902466
aa(lp45
F0.5718749761581421
aF0.2958333194255829
aF0.6031249761581421
aF0.2874999940395355
aF-0.0031250000465661287
aF-0.004166666883975267
aa(lp46
F-0.06971783190965652
aF-0.07957573980093002
aF-0.04979844018816948
aF-0.07957573980093002
aF-0.08963721990585327
aF-0.07957573980093002
aa(lp47
F-0.026559142395853996
aF-0.020758893340826035
aF-0.10291679203510284
aF-0.027678515762090683
aF-0.06307800859212875
aF-0.04497759789228439
aF-0.06307800859212875
aF-0.010379434563219547
aF-0.043158624321222305
aF-0.04151778668165207
aF-0.0829973965883255
aF-0.04497759789228439
aF-0.0829973965883255
aF-0.020758893340826035
aF-0.043158624321222305
aF-0.010379434563219547
aaaa(lp48
aa(lp49
F0.021058108657598495
aF0.0017474787309765816
aF0.21046675741672516
aF0.0
aF-0.47764837741851807
aF0.0827939510345459
aa(lp50
F0.07633592188358307
aF-0.05299803987145424
aF0.3746451735496521
aF0.1833282858133316
aF-0.32165947556495667
aF0.0008064122521318495
aaI0
aaa(lp51
F1363684755.022
a(lp52
(lp53
I1363684759
aI909606
aa(lp54
(lp55
(lp56
I0
aF-0.019919387996196747
aF-0.062276653945446014
aF0.3187100291252136
aF0.3321422040462494
aa(lp57
I-1
aF0.0
ag9
a(lp58
F0.019919387996196747
aF-0.089955173432827
aF0.019919387996196747
aF-0.089955173432827
aF0.05975813418626785
aF-0.10379444062709808
aF0.039838746190071106
aF-0.11417386680841446
aF0.039838746190071106
aF-0.09341500699520111
aF0.04979844018816948
aF-0.11417386680841446
aF0.029879052191972733
aF-0.11417386680841446
aa(lp59
F-0.07303773611783981
aF-0.10725425183773041
aF-0.059758104383945465
aF-0.11071406304836273
aF-0.09627696871757507
aF-0.11071406304836273
aF-0.07303773611783981
aF-0.1210935190320015
aF-0.07303773611783981
aF-0.10033462941646576
aF-0.06307800859212875
aF-0.1210935190320015
aF-0.08631730824708939
aF-0.1210935190320015
aa(lp60
F0.003319908631965518
aF-0.1383925825357437
aF0.03319896012544632
aF-0.1383925825357437
aF0.5345032811164856
aF-0.41863757371902466
aa(lp61
F0.5406249761581421
aF0.3291666805744171
aF0.565625011920929
aF0.32083332538604736
aF-0.0031250000465661287
aF-0.004166666883975267
aa(lp62
F-0.01659948006272316
aF-0.027678515762090683
aF0.009959693998098373
aF-0.027678515762090683
aF-0.039838775992393494
aF-0.027678515762090683
aa(lp63
F0.026559174060821533
aF0.04151778668165207
aF-0.06307800859212875
aF0.03459816426038742
aF-0.01659948006272316
aF0.020758869126439095
aF-0.01659948006272316
aF0.062276653945446014
aF0.003319908631965518
aF0.020758869126439095
aF-0.039838775992393494
aF0.020758869126439095
aF-0.039838775992393494
aF0.05189722031354904
aF0.003319908631965518
aF0.05189722031354904
aaaa(lp64
aa(lp65
F0.021058108657598495
aF0.0017474787309765816
aF0.21046675741672516
aF0.0
aF-0.47764837741851807
aF0.0827939510345459
aa(lp66
F0.07623720169067383
aF-0.053199365735054016
aF0.3746698200702667
aF0.18405115604400635
aF-0.32198095321655273
aF0.0006937008583918214
aaI0
aaa(lp67
F1363684755.375
a(lp68
(lp69
I1363684760
aI376436
aa(lp70
(lp71
(lp72
I0
aF-0.03153903782367706
aF-0.019028987735509872
aF0.30875033140182495
aF0.3217627704143524
aa(lp73
I-1
aF0.0
ag9
a(lp74
F0.006639785598963499
aF-0.05881684273481369
aF0.006639785598963499
aF-0.05881684273481369
aF0.04647853225469589
aF-0.062276653945446014
aF0.026559174060821533
aF-0.07265610992908478
aF0.026559174060821533
aF-0.05881684273481369
aF0.03651886805891991
aF-0.07265610992908478
aF0.01659948006272316
aF-0.07265610992908478
aa(lp75
F-0.07967749238014221
aF-0.06573648750782013
aF-0.06639792025089264
aF-0.062276653945446014
aF-0.09295706450939178
aF-0.07265610992908478
aF-0.07635758072137833
aF-0.08303555101156235
aF-0.07635758072137833
aF-0.05881684273481369
aF-0.07303773611783981
aF-0.08303555101156235
aF-0.0829973965883255
aF-0.08303555101156235
aa(lp76
F-0.003319908631965518
aF-0.089955173432827
aF0.023239266127347946
aF-0.09687481820583344
aF0.5345032811164856
aF-0.41863757371902466
aa(lp77
F0.546875
aF0.38333332538604736
aF0.5718749761581421
aF0.3791666626930237
aF-0.0031250000465661287
aF-0.004166666883975267
aa(lp78
F-0.026559142395853996
aF0.013839245773851871
aF-0.003319908631965518
aF0.013839245773851871
aF-0.04979844018816948
aF0.013839245773851871
aa(lp79
F0.019919387996196747
aF0.07611589878797531
aF-0.07303773611783981
aF0.06919627636671066
aF-0.026559142395853996
aF0.055357031524181366
aF-0.026559142395853996
aF0.09687481820583344
aF-0.003319908631965518
aF0.055357031524181366
aF-0.04979844018816948
aF0.055357031524181366
aF-0.04979844018816948
aF0.08649538457393646
aF-0.003319908631965518
aF0.08649538457393646
aaaa(lp80
aa(lp81
F0.021058108657598495
aF0.0017474787309765816
aF0.21046675741672516
aF0.0
aF-0.47764837741851807
aF0.0827939510345459
aa(lp82
F0.07634805142879486
aF-0.05298156291246414
aF0.3746429979801178
aF0.18332122266292572
aF-0.32163286209106445
aF0.0008833174360916018
aaI0
aaa(lp83
F1363684755.74
a(lp84
(lp85
I1363684760
aI376436
aa(lp86
(lp87
(lp88
I0
aF-0.03153903782367706
aF-0.019028987735509872
aF0.30875033140182495
aF0.3217627704143524
aa(lp89
I-1
aF0.0
ag9
a(lp90
F0.006639785598963499
aF-0.05881684273481369
aF0.006639785598963499
aF-0.05881684273481369
aF0.04647853225469589
aF-0.062276653945446014
aF0.026559174060821533
aF-0.07265610992908478
aF0.026559174060821533
aF-0.05881684273481369
aF0.03651886805891991
aF-0.07265610992908478
aF0.01659948006272316
aF-0.07265610992908478
aa(lp91
F-0.07967749238014221
aF-0.06573648750782013
aF-0.06639792025089264
aF-0.062276653945446014
aF-0.09295706450939178
aF-0.07265610992908478
aF-0.07635758072137833
aF-0.08303555101156235
aF-0.07635758072137833
aF-0.05881684273481369
aF-0.07303773611783981
aF-0.08303555101156235
aF-0.0829973965883255
aF-0.08303555101156235
aa(lp92
F-0.003319908631965518
aF-0.089955173432827
aF0.023239266127347946
aF-0.09687481820583344
aF0.5345032811164856
aF-0.41863757371902466
aa(lp93
F0.546875
aF0.38333332538604736
aF0.5718749761581421
aF0.3791666626930237
aF-0.0031250000465661287
aF-0.004166666883975267
aa(lp94
F-0.026559142395853996
aF0.013839245773851871
aF-0.003319908631965518
aF0.013839245773851871
aF-0.04979844018816948
aF0.013839245773851871
aa(lp95
F0.019919387996196747
aF0.07611589878797531
aF-0.07303773611783981
aF0.06919627636671066
aF-0.026559142395853996
aF0.055357031524181366
aF-0.026559142395853996
aF0.09687481820583344
aF-0.003319908631965518
aF0.055357031524181366
aF-0.04979844018816948
aF0.055357031524181366
aF-0.04979844018816948
aF0.08649538457393646
aF-0.003319908631965518
aF0.08649538457393646
aaaa(lp96
aa(lp97
F0.021058108657598495
aF0.0017474787309765816
aF0.21046675741672516
aF0.0
aF-0.47764837741851807
aF0.0827939510345459
aa(lp98
F0.07634805142879486
aF-0.05298156291246414
aF0.3746429979801178
aF0.18332122266292572
aF-0.32163286209106445
aF0.0008833174360916018
aaI0
aaa(lp99
F1363684756.097
a(lp100
(lp101
I1363684760
aI909964
aa(lp102
(lp103
(lp104
I0
aF-0.028219128027558327
aF-0.005189717281609774
aF0.2888309359550476
aF0.3010038733482361
aa(lp105
I-1
aF0.0
ag9
a(lp106
F0.009959693998098373
aF-0.038057949393987656
aF0.009959693998098373
aF-0.038057949393987656
aF0.04315865412354469
aF-0.04843740910291672
aF0.029879052191972733
aF-0.05881684273481369
aF0.029879052191972733
aF-0.038057949393987656
aF0.039838746190071106
aF-0.05881684273481369
aF0.019919387996196747
aF-0.05881684273481369
aa(lp107
F-0.07635758072137833
aF-0.04497759789228439
aF-0.059758104383945465
aF-0.05881684273481369
aF-0.09959688037633896
aF-0.04843740910291672
aF-0.07967749238014221
aF-0.06919629871845245
aF-0.07967749238014221
aF-0.04843740910291672
aF-0.06971783190965652
aF-0.06919629871845245
aF-0.08963721990585327
aF-0.062276653945446014
aa(lp108
F-0.0
aF-0.07265610992908478
aF0.019919387996196747
aF-0.07265610992908478
aF0.5345032811164856
aF-0.41863757371902466
aa(lp109
F0.5375000238418579
aF0.4124999940395355
aF0.5718749761581421
aF0.4124999940395355
aF-0.0031250000465661287
aF-0.004166666883975267
aa(lp110
F-0.023239297792315483
aF0.027678539976477623
aF-0.0
aF0.027678539976477623
aF-0.04647853225469589
aF0.027678539976477623
aa(lp111
F0.01659948006272316
aF0.08649538457393646
aF-0.06971783190965652
aF0.08303557336330414
aF-0.026559142395853996
aF0.06573646515607834
aF-0.026559142395853996
aF0.10725425183773041
aF-0.006639817263931036
aF0.06573646515607834
aF-0.04647853225469589
aF0.06573646515607834
aF-0.04647853225469589
aF0.09341500699520111
aF-0.006639817263931036
aF0.09687481820583344
aaaa(lp112
aa(lp113
F0.020929720252752304
aF0.0017368246335536242
aF0.21049907803535461
aF0.0
aF-0.4791823625564575
aF0.0827939510345459
aa(lp114
F0.07627039402723312
aF-0.05290740728378296
aF0.37468305230140686
aF0.1830788105726242
aF-0.32299456000328064
aF0.0006167204701341689
aaI0
aaa(lp115
F1363684756.447
a(lp116
(lp117
I1363684761
aI376795
aa(lp118
(lp119
(lp120
I0
aF-0.034858882427215576
aF-0.019028987735509872
aF0.2888309359550476
aF0.3010038733482361
aa(lp121
I-1
aF0.0
ag9
a(lp122
F0.003319908631965518
aF-0.05881684273481369
aF0.003319908631965518
aF-0.05881684273481369
aF0.04315865412354469
aF-0.05881684273481369
aF0.023239266127347946
aF-0.07265610992908478
aF0.023239266127347946
aF-0.05189722031354904
aF0.03319896012544632
aF-0.07265610992908478
aF0.01659948006272316
aF-0.07265610992908478
aa(lp123
F-0.0829973965883255
aF-0.05881684273481369
aF-0.06971783190965652
aF-0.07265610992908478
aF-0.09627696871757507
aF-0.07265610992908478
aF-0.0829973965883255
aF-0.07957573980093002
aF-0.0829973965883255
aF-0.05881684273481369
aF-0.07303773611783981
aF-0.0761159211397171
aF-0.08631730824708939
aF-0.07957573980093002
aa(lp124
F-0.006639817263931036
aF-0.08649536222219467
aF0.013279571197926998
aF-0.089955173432827
aF0.5345032811164856
aF-0.41863757371902466
aa(lp125
F0.5531250238418579
aF0.38749998807907104
aF0.578125
aF0.3791666626930237
aF-0.0031250000465661287
aF-0.004166666883975267
aa(lp126
F-0.029879052191972733
aF0.010379434563219547
aF-0.009959662333130836
aF0.010379434563219547
aF-0.053118348121643066
aF0.010379434563219547
aa(lp127
F0.009959693998098373
aF0.07265608757734299
aF-0.07635758072137833
aF0.06573646515607834
aF-0.03319896012544632
aF0.05189722031354904
aF-0.03319896012544632
aF0.08995519578456879
aF-0.009959662333130836
aF0.05189722031354904
aF-0.05643825605511665
aF0.05189722031354904
aF-0.05643825605511665
aF0.07611589878797531
aF-0.009959662333130836
aF0.07957576215267181
aaaa(lp128
aa(lp129
F0.021058108657598495
aF0.0017474787309765816
aF0.21046675741672516
aF0.0
aF-0.47764837741851807
aF0.0827939510345459
aa(lp130
F0.07632888853549957
aF-0.0530247762799263
aF0.3746461868286133
aF0.18338815867900848
aF-0.32166755199432373
aF0.0007744402973912656
aaI0
aaa(lp131
F1363684756.809
a(lp132
(lp133
I1363684761
aI376795
aa(lp134
(lp135
(lp136
I0
aF-0.034858882427215576
aF-0.019028987735509872
aF0.2888309359550476
aF0.3010038733482361
aa(lp137
I-1
aF0.0
ag9
a(lp138
F0.003319908631965518
aF-0.05881684273481369
aF0.003319908631965518
aF-0.05881684273481369
aF0.04315865412354469
aF-0.05881684273481369
aF0.023239266127347946
aF-0.07265610992908478
aF0.023239266127347946
aF-0.05189722031354904
aF0.03319896012544632
aF-0.07265610992908478
aF0.01659948006272316
aF-0.07265610992908478
aa(lp139
F-0.0829973965883255
aF-0.05881684273481369
aF-0.06971783190965652
aF-0.07265610992908478
aF-0.09627696871757507
aF-0.07265610992908478
aF-0.0829973965883255
aF-0.07957573980093002
aF-0.0829973965883255
aF-0.05881684273481369
aF-0.07303773611783981
aF-0.0761159211397171
aF-0.08631730824708939
aF-0.07957573980093002
aa(lp140
F-0.006639817263931036
aF-0.08649536222219467
aF0.013279571197926998
aF-0.089955173432827
aF0.5345032811164856
aF-0.41863757371902466
aa(lp141
F0.5531250238418579
aF0.38749998807907104
aF0.578125
aF0.3791666626930237
aF-0.0031250000465661287
aF-0.004166666883975267
aa(lp142
F-0.029879052191972733
aF0.010379434563219547
aF-0.009959662333130836
aF0.010379434563219547
aF-0.053118348121643066
aF0.010379434563219547
aa(lp143
F0.009959693998098373
aF0.07265608757734299
aF-0.07635758072137833
aF0.06573646515607834
aF-0.03319896012544632
aF0.05189722031354904
aF-0.03319896012544632
aF0.08995519578456879
aF-0.009959662333130836
aF0.05189722031354904
aF-0.05643825605511665
aF0.05189722031354904
aF-0.05643825605511665
aF0.07611589878797531
aF-0.009959662333130836
aF0.07957576215267181
aaaa(lp144
aa(lp145
F0.021058108657598495
aF0.0017474787309765816
aF0.21046675741672516
aF0.0
aF-0.47764837741851807
aF0.0827939510345459
aa(lp146
F0.07632888853549957
aF-0.0530247762799263
aF0.3746461868286133
aF0.18338815867900848
aF-0.32166755199432373
aF0.0007744402973912656
aaI0
aaa(lp147
F1363684757.157
a(lp148
(lp149
I1363684761
aI943666
aa(lp150
(lp151
(lp152
I0
aF-0.028219128027558327
aF-0.029408421367406845
aF0.3286696970462799
aF0.34252163767814636
aa(lp153
I-1
aF0.0
ag9
a(lp154
F0.013279571197926998
aF-0.06573648750782013
aF0.013279571197926998
aF-0.06573648750782013
aF0.05975813418626785
aF-0.06573648750782013
aF0.03651886805891991
aF-0.08303555101156235
aF0.03651886805891991
aF-0.06573648750782013
aF0.04979844018816948
aF-0.08303555101156235
aF0.026559174060821533
aF-0.08649536222219467
aa(lp155
F-0.07967749238014221
aF-0.0761159211397171
aF-0.06307800859212875
aF-0.08303555101156235
aF-0.09295706450939178
aF-0.08303555101156235
aF-0.07967749238014221
aF-0.09341500699520111
aF-0.07967749238014221
aF-0.07265610992908478
aF-0.06639792025089264
aF-0.09341500699520111
aF-0.0829973965883255
aF-0.09341500699520111
aa(lp156
F-0.003319908631965518
aF-0.10379444062709808
aF0.026559174060821533
aF-0.10379444062709808
aF0.5345032811164856
aF-0.41863757371902466
aa(lp157
F0.528124988079071
aF0.375
aF0.574999988079071
aF0.36250001192092896
aF-0.0031250000465661287
aF-0.004166666883975267
aa(lp158
F-0.023239297792315483
aF0.003459811443462968
aF0.003319908631965518
aF0.003459811443462968
aF-0.04979844018816948
aF0.003459811443462968
aa(lp159
F0.026559174060821533
aF0.07265608757734299
aF-0.06639792025089264
aF0.06573646515607834
aF-0.019919387996196747
aF0.04843740910291672
aF-0.019919387996196747
aF0.09341500699520111
aF-0.0
aF0.04843740910291672
aF-0.039838775992393494
aF0.04843740910291672
aF-0.039838775992393494
aF0.08303557336330414
aF-0.0
aF0.08303557336330414
aaaa(lp160
aa(lp161
F0.021058108657598495
aF0.0017474787309765816
aF0.21046675741672516
aF0.0
aF-0.47764837741851807
aF0.0827939510345459
aa(lp162
F0.07631887495517731
aF-0.053039513528347015
aF0.37464988231658936
aF0.18350686132907867
aF-0.32172149419784546
aF0.0008250832906924188
aaI0
aaa(lp163
F1363684757.512
a(lp164
(lp165
I1363684762
aI377157
aa(lp166
(lp167
(lp168
I0
aF-0.02489922009408474
aF-0.036328043788671494
aF0.34858909249305725
aF0.3632805347442627
aa(lp169
I-1
aF0.0
ag9
a(lp170
F0.01659948006272316
aF-0.08649536222219467
aF0.01659948006272316
aF-0.08649536222219467
aF0.056438226252794266
aF-0.08649536222219467
aF0.039838746190071106
aF-0.09687481820583344
aF0.039838746190071106
aF-0.07265610992908478
aF0.04979844018816948
aF-0.09687481820583344
aF0.029879052191972733
aF-0.09687481820583344
aa(lp171
F-0.0829973965883255
aF-0.08303555101156235
aF-0.059758104383945465
aF-0.08649536222219467
aF-0.10623670369386673
aF-0.08649536222219467
aF-0.07967749238014221
aF-0.10379444062709808
aF-0.07967749238014221
aF-0.07957573980093002
aF-0.06971783190965652
aF-0.10379444062709808
aF-0.08963721990585327
aF-0.10379444062709808
aa(lp172
F0.003319908631965518
aF-0.11417386680841446
aF0.029879052191972733
aF-0.11417386680841446
aF0.5345032811164856
aF-0.41863757371902466
aa(lp173
F0.534375011920929
aF0.36250001192092896
aF0.578125
aF0.3499999940395355
aF-0.0031250000465661287
aF-0.004166666883975267
aa(lp174
F-0.043158624321222305
aF0.006919622886925936
aF-0.029879052191972733
aF0.006919622886925936
aF-0.06639792025089264
aF0.006919622886925936
aa(lp175
F0.03319896012544632
aF0.07957576215267181
aF-0.07303773611783981
aF0.07265608757734299
aF-0.019919387996196747
aF0.055357031524181366
aF-0.019919387996196747
aF0.10033462941646576
aF0.006639785598963499
aF0.055357031524181366
aF-0.04647853225469589
aF0.055357031524181366
aF-0.04647853225469589
aF0.08303557336330414
aF0.006639785598963499
aF0.08995519578456879
aaaa(lp176
aa(lp177
F0.021058108657598495
aF0.0017474787309765816
aF0.21046675741672516
aF0.0
aF-0.47764837741851807
aF0.0827939510345459
aa(lp178
F0.0761905312538147
aF-0.053112518042325974
aF0.37465113401412964
aF0.18369172513484955
aF-0.32215410470962524
aF0.0007490377174690366
aaI0
aaa(lp179
F1363684757.862
a(lp180
(lp181
I1363684762
aI377157
aa(lp182
(lp183
(lp184
I0
aF-0.02489922009408474
aF-0.036328043788671494
aF0.34858909249305725
aF0.3632805347442627
aa(lp185
I-1
aF0.0
ag9
a(lp186
F0.01659948006272316
aF-0.08649536222219467
aF0.01659948006272316
aF-0.08649536222219467
aF0.056438226252794266
aF-0.08649536222219467
aF0.039838746190071106
aF-0.09687481820583344
aF0.039838746190071106
aF-0.07265610992908478
aF0.04979844018816948
aF-0.09687481820583344
aF0.029879052191972733
aF-0.09687481820583344
aa(lp187
F-0.0829973965883255
aF-0.08303555101156235
aF-0.059758104383945465
aF-0.08649536222219467
aF-0.10623670369386673
aF-0.08649536222219467
aF-0.07967749238014221
aF-0.10379444062709808
aF-0.07967749238014221
aF-0.07957573980093002
aF-0.06971783190965652
aF-0.10379444062709808
aF-0.08963721990585327
aF-0.10379444062709808
aa(lp188
F0.003319908631965518
aF-0.11417386680841446
aF0.029879052191972733
aF-0.11417386680841446
aF0.5345032811164856
aF-0.41863757371902466
aa(lp189
F0.534375011920929
aF0.36250001192092896
aF0.578125
aF0.3499999940395355
aF-0.0031250000465661287
aF-0.004166666883975267
aa(lp190
F-0.043158624321222305
aF0.006919622886925936
aF-0.029879052191972733
aF0.006919622886925936
aF-0.06639792025089264
aF0.006919622886925936
aa(lp191
F0.03319896012544632
aF0.07957576215267181
aF-0.07303773611783981
aF0.07265608757734299
aF-0.019919387996196747
aF0.055357031524181366
aF-0.019919387996196747
aF0.10033462941646576
aF0.006639785598963499
aF0.055357031524181366
aF-0.04647853225469589
aF0.055357031524181366
aF-0.04647853225469589
aF0.08303557336330414
aF0.006639785598963499
aF0.08995519578456879
aaaa(lp192
aa(lp193
F0.021058108657598495
aF0.0017474787309765816
aF0.21046675741672516
aF0.0
aF-0.47764837741851807
aF0.0827939510345459
aa(lp194
F0.0761905312538147
aF-0.053112518042325974
aF0.37465113401412964
aF0.18369172513484955
aF-0.32215410470962524
aF0.0007490377174690366
aaI0
aaa(lp195
F1363684758.219
a(lp196
(lp197
I1363684762
aI910683
aa(lp198
(lp199
(lp200
I0
aF-0.034858882427215576
aF-0.022488798946142197
aF0.38842782378196716
aF0.40479832887649536
aa(lp201
I-1
aF0.0
ag9
a(lp202
F0.029879052191972733
aF-0.0761159211397171
aF0.029879052191972733
aF-0.0761159211397171
aF0.06639792025089264
aF-0.0761159211397171
aF0.04647853225469589
aF-0.089955173432827
aF0.04647853225469589
aF-0.06919629871845245
aF0.05975813418626785
aF-0.089955173432827
aF0.039838746190071106
aF-0.089955173432827
aa(lp203
F-0.09627696871757507
aF-0.07957573980093002
aF-0.07967749238014221
aF-0.089955173432827
aF-0.11619635671377182
aF-0.089955173432827
aF-0.09627696871757507
aF-0.09687481820583344
aF-0.09627696871757507
aF-0.0761159211397171
aF-0.08631730824708939
aF-0.09687481820583344
aF-0.10291679203510284
aF-0.09687481820583344
aa(lp204
F-0.003319908631965518
aF-0.10725425183773041
aF0.029879052191972733
aF-0.11417386680841446
aF0.5345032811164856
aF-0.41863757371902466
aa(lp205
F0.550000011920929
aF0.36250001192092896
aF0.590624988079071
aF0.34583333134651184
aF-0.0031250000465661287
aF-0.004166666883975267
aa(lp206
F-0.006639817263931036
aF0.03459816426038742
aF0.013279571197926998
aF0.03459816426038742
aF-0.026559142395853996
aF0.03459816426038742
aa(lp207
F0.03319896012544632
aF0.11071406304836273
aF-0.08631730824708939
aF0.10379444062709808
aF-0.023239297792315483
aF0.08995519578456879
aF-0.023239297792315483
aF0.13493278622627258
aF0.009959693998098373
aF0.08995519578456879
aF-0.053118348121643066
aF0.08995519578456879
aF-0.053118348121643066
aF0.1210934966802597
aF0.009959693998098373
aF0.1210934966802597
aaaa(lp208
aa(lp209
F0.021058108657598495
aF0.0017474787309765816
aF0.21046675741672516
aF0.0
aF-0.47764837741851807
aF0.0827939510345459
aa(lp210
F0.07638467848300934
aF-0.05290990322828293
aF0.37463366985321045
aF0.18306830525398254
aF-0.3215135633945465
aF0.0009341815602965653
aaI0
aaa(lp211
F1363684758.58
a(lp212
(lp213
I1363684763
aI377513
aa(lp214
(lp215
(lp216
I0
aF-0.03153903782367706
aF-0.015569175593554974
aF0.42826658487319946
aF0.446316123008728
aa(lp217
I-1
aF0.0
ag9
a(lp218
F0.01659948006272316
aF-0.06919629871845245
aF0.01659948006272316
aF-0.06919629871845245
aF0.0829973965883255
aF-0.0761159211397171
aF0.04979844018816948
aF-0.09341500699520111
aF0.04979844018816948
aF-0.062276653945446014
aF0.06971783190965652
aF-0.089955173432827
aF0.03651886805891991
aF-0.089955173432827
aa(lp219
F-0.10291679203510284
aF-0.0761159211397171
aF-0.07967749238014221
aF-0.089955173432827
aF-0.13279584050178528
aF-0.089955173432827
aF-0.10623670369386673
aF-0.10725425183773041
aF-0.10623670369386673
aF-0.0761159211397171
aF-0.09295706450939178
aF-0.10725425183773041
aF-0.1195162683725357
aF-0.10725425183773041
aa(lp220
F0.009959693998098373
aF-0.11417386680841446
aF0.039838746190071106
aF-0.11417386680841446
aF0.5345032811164856
aF-0.41863757371902466
aa(lp221
F0.550000011920929
aF0.3541666567325592
aF0.59375
aF0.34583333134651184
aF-0.0031250000465661287
aF-0.004166666883975267
aa(lp222
F-0.04979844018816948
aF0.04497759789228439
aF-0.029879052191972733
aF0.04497759789228439
aF-0.07635758072137833
aF0.04497759789228439
aa(lp223
F0.03319896012544632
aF0.12801311910152435
aF-0.09959688037633896
aF0.1210934966802597
aF-0.026559142395853996
aF0.10725425183773041
aF-0.026559142395853996
aF0.16261129081249237
aF0.003319908631965518
aF0.10725425183773041
aF-0.059758104383945465
aF0.10725425183773041
aF-0.059758104383945465
aF0.14185240864753723
aF0.003319908631965518
aF0.14185240864753723
aaaa(lp224
aa(lp225
F0.02106076292693615
aF0.0017151737120002508
aF0.21046675741672516
aF3.725290298461914e-09
aF-0.4776483476161957
aF0.08125995844602585
aa(lp226
F0.07633262872695923
aF-0.05306646227836609
aF0.3746422529220581
aF0.18327292799949646
aF-0.32144641876220703
aF-0.0005473049241118133
aaI0
aaa(lp227
F1363684758.933
a(lp228
(lp229
I1363684763
aI911042
aa(lp230
(lp231
(lp232
I0
aF-0.02489922009408474
aF-0.053627125918865204
aF0.4481859505176544
aF0.467074990272522
aa(lp233
I-1
aF0.0
ag9
a(lp234
F0.04647853225469589
aF-0.11763370782136917
aF0.04647853225469589
aF-0.11763370782136917
aF0.09959688037633896
aF-0.10725425183773041
aF0.07635761797428131
aF-0.12455333024263382
aF0.07635761797428131
aF-0.09341500699520111
aF0.09295709431171417
aF-0.12455333024263382
aF0.06307800859212875
aF-0.12455333024263382
aa(lp235
F-0.09295706450939178
aF-0.1210935190320015
aF-0.0829973965883255
aF-0.11763370782136917
aF-0.1261560171842575
aF-0.13147296011447906
aF-0.10291679203510284
aF-0.1383925825357437
aF-0.10291679203510284
aF-0.10725425183773041
aF-0.08963721990585327
aF-0.1383925825357437
aF-0.10955654084682465
aF-0.1383925825357437
aa(lp236
F0.026559174060821533
aF-0.14531221985816956
aF0.056438226252794266
aF-0.1522318422794342
aF0.5345032811164856
aF-0.41863757371902466
aa(lp237
F0.5375000238418579
aF0.3166666626930237
aF0.5843750238418579
aF0.2958333194255829
aF-0.0031250000465661287
aF-0.004166666883975267
aa(lp238
F-0.04979844018816948
aF0.02421868033707142
aF-0.026559142395853996
aF0.02421868033707142
aF-0.06971783190965652
aF0.02421868033707142
aa(lp239
F0.053118348121643066
aF0.11763369292020798
aF-0.09627696871757507
aF0.11071406304836273
aF-0.01659948006272316
aF0.09341500699520111
aF-0.01659948006272316
aF0.15569165349006653
aF0.019919387996196747
aF0.09341500699520111
aF-0.053118348121643066
aF0.09341500699520111
aF-0.053118348121643066
aF0.13147297501564026
aF0.019919387996196747
aF0.13147297501564026
aaaa(lp240
aa(lp241
F0.021058108657598495
aF0.0017474787309765816
aF0.21046675741672516
aF0.0
aF-0.47764837741851807
aF0.0827939510345459
aa(lp242
F0.07628004997968674
aF-0.05311301350593567
aF0.37466004490852356
aF0.18379347026348114
aF-0.3218562602996826
aF0.0007979520596563816
aaI0
aaa(lp243
F1363684759.28
a(lp244
(lp245
I1363684763
aI911042
aa(lp246
(lp247
(lp248
I0
aF-0.02489922009408474
aF-0.053627125918865204
aF0.4481859505176544
aF0.467074990272522
aa(lp249
I-1
aF0.0
ag9
a(lp250
F0.04647853225469589
aF-0.11763370782136917
aF0.04647853225469589
aF-0.11763370782136917
aF0.09959688037633896
aF-0.10725425183773041
aF0.07635761797428131
aF-0.12455333024263382
aF0.07635761797428131
aF-0.09341500699520111
aF0.09295709431171417
aF-0.12455333024263382
aF0.06307800859212875
aF-0.12455333024263382
aa(lp251
F-0.09295706450939178
aF-0.1210935190320015
aF-0.0829973965883255
aF-0.11763370782136917
aF-0.1261560171842575
aF-0.13147296011447906
aF-0.10291679203510284
aF-0.1383925825357437
aF-0.10291679203510284
aF-0.10725425183773041
aF-0.08963721990585327
aF-0.1383925825357437
aF-0.10955654084682465
aF-0.1383925825357437
aa(lp252
F0.026559174060821533
aF-0.14531221985816956
aF0.056438226252794266
aF-0.1522318422794342
aF0.5345032811164856
aF-0.41863757371902466
aa(lp253
F0.5375000238418579
aF0.3166666626930237
aF0.5843750238418579
aF0.2958333194255829
aF-0.0031250000465661287
aF-0.004166666883975267
aa(lp254
F-0.04979844018816948
aF0.02421868033707142
aF-0.026559142395853996
aF0.02421868033707142
aF-0.06971783190965652
aF0.02421868033707142
aa(lp255
F0.053118348121643066
aF0.11763369292020798
aF-0.09627696871757507
aF0.11071406304836273
aF-0.01659948006272316
aF0.09341500699520111
aF-0.01659948006272316
aF0.15569165349006653
aF0.019919387996196747
aF0.09341500699520111
aF-0.053118348121643066
aF0.09341500699520111
aF-0.053118348121643066
aF0.13147297501564026
aF0.019919387996196747
aF0.13147297501564026
aaaa(lp256
aa(lp257
F0.021058108657598495
aF0.0017474787309765816
aF0.21046675741672516
aF0.0
aF-0.47764837741851807
aF0.0827939510345459
aa(lp258
F0.07628004997968674
aF-0.05311301350593567
aF0.37466004490852356
aF0.18379347026348114
aF-0.3218562602996826
aF0.0007979520596563816
aaI0
aaa(lp259
F1363684759.637
a(lp260
(lp261
I1363684764
aI377870
aa(lp262
(lp263
(lp264
I0
aF-0.023239297792315483
aF-0.038057949393987656
aF0.4183069169521332
aF0.4359366297721863
aa(lp265
I-1
aF0.0
ag9
a(lp266
F0.039838746190071106
aF-0.089955173432827
aF0.039838746190071106
aF-0.089955173432827
aF0.07967749238014221
aF-0.089955173432827
aF0.05975813418626785
aF-0.10379444062709808
aF0.05975813418626785
aF-0.0761159211397171
aF0.07303770631551743
aF-0.10379444062709808
aF0.053118348121643066
aF-0.10379444062709808
aa(lp267
F-0.08963721990585327
aF-0.09687481820583344
aF-0.059758104383945465
aF-0.08303555101156235
aF-0.11619635671377182
aF-0.10379444062709808
aF-0.08963721990585327
aF-0.11763370782136917
aF-0.08963721990585327
aF-0.089955173432827
aF-0.07303773611783981
aF-0.11071406304836273
aF-0.10291679203510284
aF-0.11763370782136917
aa(lp268
F0.019919387996196747
aF-0.12455333024263382
aF0.04979844018816948
aF-0.12455333024263382
aF0.5345032811164856
aF-0.41863757371902466
aa(lp269
F0.5375000238418579
aF0.34166666865348816
aF0.5843750238418579
aF0.32499998807907104
aF-0.0031250000465661287
aF-0.004166666883975267
aa(lp270
F-0.043158624321222305
aF0.027678539976477623
aF-0.023239297792315483
aF0.027678539976477623
aF-0.06971783190965652
aF0.027678539976477623
aa(lp271
F0.04315865412354469
aF0.11763369292020798
aF-0.08963721990585327
aF0.10725425183773041
aF-0.019919387996196747
aF0.09341500699520111
aF-0.019919387996196747
aF0.14531221985816956
aF0.013279571197926998
aF0.09341500699520111
aF-0.053118348121643066
aF0.09341500699520111
aF-0.053118348121643066
aF0.12455330789089203
aF0.013279571197926998
aF0.13147297501564026
aaaa(lp272
aa(lp273
F0.021058108657598495
aF0.0017474787309765816
aF0.21046675741672516
aF0.0
aF-0.47764837741851807
aF0.0827939510345459
aa(lp274
F0.07627464830875397
aF-0.053126268088817596
aF0.3746602535247803
aF0.18377946317195892
aF-0.32185474038124084
aF0.0007306503830477595
aaI0
aaa(lp275
F1363684759.989
a(lp276
(lp277
I1363684764
aI911399
aa(lp278
(lp279
(lp280
I0
aF-0.01659948006272316
aF-0.020758893340826035
aF0.3386293947696686
aF0.3529011011123657
aa(lp281
I-1
aF0.0
ag9
a(lp282
F0.029879052191972733
aF-0.06919629871845245
aF0.029879052191972733
aF-0.06919629871845245
aF0.06307800859212875
aF-0.06919629871845245
aF0.04647853225469589
aF-0.0761159211397171
aF0.04647853225469589
aF-0.05881684273481369
aF0.056438226252794266
aF-0.0761159211397171
aF0.039838746190071106
aF-0.0761159211397171
aa(lp283
F-0.06971783190965652
aF-0.06919629871845245
aF-0.053118348121643066
aF-0.0761159211397171
aF-0.08963721990585327
aF-0.0761159211397171
aF-0.06639792025089264
aF-0.08649536222219467
aF-0.06639792025089264
aF-0.062276653945446014
aF-0.05643825605511665
aF-0.08649536222219467
aF-0.07967749238014221
aF-0.08649536222219467
aa(lp284
F0.013279571197926998
aF-0.09341500699520111
aF0.04315865412354469
aF-0.09341500699520111
aF0.5345032811164856
aF-0.41863757371902466
aa(lp285
F0.528124988079071
aF0.38333332538604736
aF0.5625
aF0.36666667461395264
aF-0.0031250000465661287
aF-0.004166666883975267
aa(lp286
F-0.03319896012544632
aF0.02421868033707142
aF-0.01659948006272316
aF0.02421868033707142
aF-0.04979844018816948
aF0.02421868033707142
aa(lp287
F0.03319896012544632
aF0.09341500699520111
aF-0.06307800859212875
aF0.08303557336330414
aF-0.013279571197926998
aF0.07265608757734299
aF-0.013279571197926998
aF0.11071406304836273
aF0.009959693998098373
aF0.07265608757734299
aF-0.03651886805891991
aF0.07265608757734299
aF-0.03651886805891991
aF0.10033462941646576
aF0.009959693998098373
aF0.10033462941646576
aaaa(lp288
aa(lp289
F0.020929720252752304
aF0.0017368246335536242
aF0.21049907803535461
aF0.0
aF-0.4791823625564575
aF0.0827939510345459
aa(lp290
F0.07616636902093887
aF-0.05311604216694832
aF0.3747078478336334
aF0.18380287289619446
aF-0.3233259618282318
aF0.0004771512758452445
aaI0
aaa(lp291
F1363684760.333
a(lp292
(lp293
I1363684764
aI911399
aa(lp294
(lp295
(lp296
I0
aF-0.01659948006272316
aF-0.020758893340826035
aF0.3386293947696686
aF0.3529011011123657
aa(lp297
I-1
aF0.0
ag9
a(lp298
F0.029879052191972733
aF-0.06919629871845245
aF0.029879052191972733
aF-0.06919629871845245
aF0.06307800859212875
aF-0.06919629871845245
aF0.04647853225469589
aF-0.0761159211397171
aF0.04647853225469589
aF-0.05881684273481369
aF0.056438226252794266
aF-0.0761159211397171
aF0.039838746190071106
aF-0.0761159211397171
aa(lp299
F-0.06971783190965652
aF-0.06919629871845245
aF-0.053118348121643066
aF-0.0761159211397171
aF-0.08963721990585327
aF-0.0761159211397171
aF-0.06639792025089264
aF-0.08649536222219467
aF-0.06639792025089264
aF-0.062276653945446014
aF-0.05643825605511665
aF-0.08649536222219467
aF-0.07967749238014221
aF-0.08649536222219467
aa(lp300
F0.013279571197926998
aF-0.09341500699520111
aF0.04315865412354469
aF-0.09341500699520111
aF0.5345032811164856
aF-0.41863757371902466
aa(lp301
F0.528124988079071
aF0.38333332538604736
aF0.5625
aF0.36666667461395264
aF-0.0031250000465661287
aF-0.004166666883975267
aa(lp302
F-0.03319896012544632
aF0.02421868033707142
aF-0.01659948006272316
aF0.02421868033707142
aF-0.04979844018816948
aF0.02421868033707142
aa(lp303
F0.03319896012544632
aF0.09341500699520111
aF-0.06307800859212875
aF0.08303557336330414
aF-0.013279571197926998
aF0.07265608757734299
aF-0.013279571197926998
aF0.11071406304836273
aF0.009959693998098373
aF0.07265608757734299
aF-0.03651886805891991
aF0.07265608757734299
aF-0.03651886805891991
aF0.10033462941646576
aF0.009959693998098373
aF0.10033462941646576
aaaa(lp304
aa(lp305
F0.020929720252752304
aF0.0017368246335536242
aF0.21049907803535461
aF0.0
aF-0.4791823625564575
aF0.0827939510345459
aa(lp306
F0.07616636902093887
aF-0.05311604216694832
aF0.3747078478336334
aF0.18380287289619446
aF-0.3233259618282318
aF0.0004771512758452445
aaI0
aaa(lp307
F1363684760.684
a(lp308
(lp309
I1363684765
aI378235
aa(lp310
(lp311
(lp312
I0
aF-0.019919387996196747
aF0.010379434563219547
aF0.2987906336784363
aF0.31138330698013306
aa(lp313
I-1
aF0.0
ag9
a(lp314
F0.023239266127347946
aF-0.02421870455145836
aF0.023239266127347946
aF-0.02421870455145836
aF0.056438226252794266
aF-0.031138326972723007
aF0.039838746190071106
aF-0.04151778668165207
aF0.039838746190071106
aF-0.02421870455145836
aF0.04979844018816948
aF-0.038057949393987656
aF0.03319896012544632
aF-0.038057949393987656
aa(lp315
F-0.06639792025089264
aF-0.031138326972723007
aF-0.04979844018816948
aF-0.038057949393987656
aF-0.08631730824708939
aF-0.038057949393987656
aF-0.06639792025089264
aF-0.04843740910291672
aF-0.06639792025089264
aF-0.027678515762090683
aF-0.05643825605511665
aF-0.04843740910291672
aF-0.07635758072137833
aF-0.04843740910291672
aa(lp316
F0.006639785598963499
aF-0.05189722031354904
aF0.03319896012544632
aF-0.055357031524181366
aF0.5345032811164856
aF-0.41863757371902466
aa(lp317
F0.5218750238418579
aF0.4333333373069763
aF0.5625
aF0.4208333194255829
aF-0.0031250000465661287
aF-0.004166666883975267
aa(lp318
F-0.009959662333130836
aF0.04497759789228439
aF0.01659948006272316
aF0.04497759789228439
aF-0.03319896012544632
aF0.04497759789228439
aa(lp319
F0.029879052191972733
aF0.10379444062709808
aF-0.05643825605511665
aF0.10033462941646576
aF-0.009959662333130836
aF0.08649538457393646
aF-0.009959662333130836
aF0.12455330789089203
aF0.013279571197926998
aF0.08649538457393646
aF-0.03319896012544632
aF0.08649538457393646
aF-0.03319896012544632
aF0.11417386680841446
aF0.013279571197926998
aF0.11417386680841446
aaaa(lp320
aa(lp321
F0.021058108657598495
aF0.0017474787309765816
aF0.21046675741672516
aF0.0
aF-0.47764837741851807
aF0.0827939510345459
aa(lp322
F0.07645077258348465
aF-0.052776485681533813
aF0.3746170401573181
aF0.18258196115493774
aF-0.3212953805923462
aF0.0010022700298577547
aaI0
aaa(lp323
F1363684761.03
a(lp324
(lp325
I1363684765
aI911763
aa(lp326
(lp327
(lp328
I0
aF-0.014939557760953903
aF-0.01210934016853571
aF0.26891160011291504
aF0.28024500608444214
aa(lp329
I-1
aF0.0
ag9
a(lp330
F0.019919387996196747
aF-0.038057949393987656
aF0.019919387996196747
aF-0.038057949393987656
aF0.053118348121643066
aF-0.05189722031354904
aF0.03651886805891991
aF-0.05881684273481369
aF0.03651886805891991
aF-0.04151778668165207
aF0.04315865412354469
aF-0.05881684273481369
aF0.026559174060821533
aF-0.05881684273481369
aa(lp331
F-0.05643825605511665
aF-0.05189722031354904
aF-0.043158624321222305
aF-0.05881684273481369
aF-0.07635758072137833
aF-0.05189722031354904
aF-0.059758104383945465
aF-0.06919629871845245
aF-0.059758104383945465
aF-0.05189722031354904
aF-0.04979844018816948
aF-0.06919629871845245
aF-0.06639792025089264
aF-0.06919629871845245
aa(lp332
F0.009959693998098373
aF-0.07265610992908478
aF0.03319896012544632
aF-0.07265610992908478
aF0.5345032811164856
aF-0.41863757371902466
aa(lp333
F0.53125
aF0.4124999940395355
aF0.5531250238418579
aF0.4124999940395355
aF-0.0031250000465661287
aF-0.004166666883975267
aa(lp334
F-0.006639817263931036
aF0.010379434563219547
aF0.013279571197926998
aF0.010379434563219547
aF-0.029879052191972733
aF0.010379434563219547
aa(lp335
F0.029879052191972733
aF0.06919627636671066
aF-0.04647853225469589
aF0.062276653945446014
aF-0.006639817263931036
aF0.05189722031354904
aF-0.006639817263931036
aF0.08303557336330414
aF0.01659948006272316
aF0.05189722031354904
aF-0.026559142395853996
aF0.05189722031354904
aF-0.026559142395853996
aF0.07265608757734299
aF0.01659948006272316
aF0.07265608757734299
aaaa(lp336
aa(lp337
F0.021058108657598495
aF0.0017474787309765816
aF0.21046675741672516
aF0.0
aF-0.47764837741851807
aF0.0827939510345459
aa(lp338
F0.07637877017259598
aF-0.05292228236794472
aF0.3746352791786194
aF0.1831068992614746
aF-0.32153084874153137
aF0.0009206135291606188
aaI0
aaa(lp339
F1363684761.367
a(lp340
(lp341
I1363684765
aI911763
aa(lp342
(lp343
(lp344
I0
aF-0.014939557760953903
aF-0.01210934016853571
aF0.26891160011291504
aF0.28024500608444214
aa(lp345
I-1
aF0.0
ag9
a(lp346
F0.019919387996196747
aF-0.038057949393987656
aF0.019919387996196747
aF-0.038057949393987656
aF0.053118348121643066
aF-0.05189722031354904
aF0.03651886805891991
aF-0.05881684273481369
aF0.03651886805891991
aF-0.04151778668165207
aF0.04315865412354469
aF-0.05881684273481369
aF0.026559174060821533
aF-0.05881684273481369
aa(lp347
F-0.05643825605511665
aF-0.05189722031354904
aF-0.043158624321222305
aF-0.05881684273481369
aF-0.07635758072137833
aF-0.05189722031354904
aF-0.059758104383945465
aF-0.06919629871845245
aF-0.059758104383945465
aF-0.05189722031354904
aF-0.04979844018816948
aF-0.06919629871845245
aF-0.06639792025089264
aF-0.06919629871845245
aa(lp348
F0.009959693998098373
aF-0.07265610992908478
aF0.03319896012544632
aF-0.07265610992908478
aF0.5345032811164856
aF-0.41863757371902466
aa(lp349
F0.53125
aF0.4124999940395355
aF0.5531250238418579
aF0.4124999940395355
aF-0.0031250000465661287
aF-0.004166666883975267
aa(lp350
F-0.006639817263931036
aF0.010379434563219547
aF0.013279571197926998
aF0.010379434563219547
aF-0.029879052191972733
aF0.010379434563219547
aa(lp351
F0.029879052191972733
aF0.06919627636671066
aF-0.04647853225469589
aF0.062276653945446014
aF-0.006639817263931036
aF0.05189722031354904
aF-0.006639817263931036
aF0.08303557336330414
aF0.01659948006272316
aF0.05189722031354904
aF-0.026559142395853996
aF0.05189722031354904
aF-0.026559142395853996
aF0.07265608757734299
aF0.01659948006272316
aF0.07265608757734299
aaaa(lp352
aa(lp353
F0.021058108657598495
aF0.0017474787309765816
aF0.21046675741672516
aF0.0
aF-0.47764837741851807
aF0.0827939510345459
aa(lp354
F0.07637877017259598
aF-0.05292228236794472
aF0.3746352791786194
aF0.1831068992614746
aF-0.32153084874153137
aF0.0009206135291606188
aaI0
aaa(lp355
F1363684761.721
a(lp356
(lp357
I1363684766
aI378589
aa(lp358
(lp359
(lp360
I0
aF-0.009959662333130836
aF-0.04497759789228439
aF0.23903250694274902
aF0.24910666048526764
aa(lp361
I-1
aF0.0
ag9
a(lp362
F0.023239266127347946
aF-0.0761159211397171
aF0.023239266127347946
aF-0.0761159211397171
aF0.04979844018816948
aF-0.0761159211397171
aF0.03651886805891991
aF-0.07957573980093002
aF0.03651886805891991
aF-0.06919629871845245
aF0.04647853225469589
aF-0.08303555101156235
aF0.029879052191972733
aF-0.08303555101156235
aa(lp363
F-0.04647853225469589
aF-0.07957573980093002
aF-0.03319896012544632
aF-0.08303555101156235
aF-0.053118348121643066
aF-0.08649536222219467
aF-0.043158624321222305
aF-0.089955173432827
aF-0.043158624321222305
aF-0.0761159211397171
aF-0.03651886805891991
aF-0.089955173432827
aF-0.04647853225469589
aF-0.089955173432827
aa(lp364
F0.013279571197926998
aF-0.09341500699520111
aF0.029879052191972733
aF-0.09687481820583344
aF0.5345032811164856
aF-0.41863757371902466
aa(lp365
F0.5249999761581421
aF0.3791666626930237
aF0.543749988079071
aF0.375
aF-0.0031250000465661287
aF-0.004166666883975267
aa(lp366
F0.003319908631965518
aF-0.020758893340826035
aF0.01659948006272316
aF-0.020758893340826035
aF-0.006639817263931036
aF-0.020758893340826035
aa(lp367
F0.019919387996196747
aF0.027678539976477623
aF-0.043158624321222305
aF0.020758869126439095
aF-0.009959662333130836
aF0.013839245773851871
aF-0.009959662333130836
aF0.038057975471019745
aF0.003319908631965518
aF0.013839245773851871
aF-0.026559142395853996
aF0.013839245773851871
aF-0.026559142395853996
aF0.031138351187109947
aF0.003319908631965518
aF0.031138351187109947
aaaa(lp368
aa(lp369
F0.020929720252752304
aF0.0017368246335536242
aF0.21049907803535461
aF0.0
aF-0.4791823625564575
aF0.0827939510345459
aa(lp370
F0.0762854740023613
aF-0.05288515239953995
aF0.3746781647205353
aF0.18298426270484924
aF-0.322937548160553
aF0.0006386101595126092
aaI0
aaa(lp371
F1363684762.068
a(lp372
(lp373
I1363684766
aI878769
aa(lp374
(lp375
(lp376
I0
aF0.003319908631965518
aF-0.038057949393987656
aF0.19919376075267792
aF0.20758888125419617
aa(lp377
I-1
aF0.0
ag9
a(lp378
F0.029879052191972733
aF-0.06573648750782013
aF0.029879052191972733
aF-0.06573648750782013
aF0.053118348121643066
aF-0.062276653945446014
aF0.04315865412354469
aF-0.07265610992908478
aF0.04315865412354469
aF-0.05881684273481369
aF0.04979844018816948
aF-0.0761159211397171
aF0.03651886805891991
aF-0.06919629871845245
aa(lp379
F-0.026559142395853996
aF-0.06573648750782013
aF-0.01659948006272316
aF-0.06573648750782013
aF-0.03319896012544632
aF-0.07265610992908478
aF-0.023239297792315483
aF-0.0761159211397171
aF-0.023239297792315483
aF-0.06573648750782013
aF-0.019919387996196747
aF-0.0761159211397171
aF-0.026559142395853996
aF-0.0761159211397171
aa(lp380
F0.019919387996196747
aF-0.07957573980093002
aF0.03651886805891991
aF-0.07957573980093002
aF0.5345032811164856
aF-0.41863757371902466
aa(lp381
F0.49687498807907104
aF0.4000000059604645
aF0.5218750238418579
aF0.3916666805744171
aF-0.0031250000465661287
aF-0.004166666883975267
aa(lp382
F0.006639785598963499
aF-0.020758893340826035
aF0.023239266127347946
aF-0.020758893340826035
aF-0.009959662333130836
aF-0.020758893340826035
aa(lp383
F0.029879052191972733
aF0.02421868033707142
aF-0.019919387996196747
aF0.01729905605316162
aF0.006639785598963499
aF0.006919622886925936
aF0.006639785598963499
aF0.03459816426038742
aF0.01659948006272316
aF0.006919622886925936
aF-0.006639817263931036
aF0.006919622886925936
aF-0.006639817263931036
aF0.027678539976477623
aF0.01659948006272316
aF0.027678539976477623
aaaa(lp384
aa(lp385
F0.021058108657598495
aF0.0017474787309765816
aF0.21046675741672516
aF0.0
aF-0.47764837741851807
aF0.0827939510345459
aa(lp386
F0.07630788534879684
aF-0.053014568984508514
aF0.3746446371078491
aF0.1834012269973755
aF-0.32176128029823303
aF0.000837997708003968
aaI0
aaa(lp387
F1363684762.419
a(lp388
(lp389
I1363684766
aI878769
aa(lp390
(lp391
(lp392
I0
aF0.003319908631965518
aF-0.038057949393987656
aF0.19919376075267792
aF0.20758888125419617
aa(lp393
I-1
aF0.0
ag9
a(lp394
F0.029879052191972733
aF-0.06573648750782013
aF0.029879052191972733
aF-0.06573648750782013
aF0.053118348121643066
aF-0.062276653945446014
aF0.04315865412354469
aF-0.07265610992908478
aF0.04315865412354469
aF-0.05881684273481369
aF0.04979844018816948
aF-0.0761159211397171
aF0.03651886805891991
aF-0.06919629871845245
aa(lp395
F-0.026559142395853996
aF-0.06573648750782013
aF-0.01659948006272316
aF-0.06573648750782013
aF-0.03319896012544632
aF-0.07265610992908478
aF-0.023239297792315483
aF-0.0761159211397171
aF-0.023239297792315483
aF-0.06573648750782013
aF-0.019919387996196747
aF-0.0761159211397171
aF-0.026559142395853996
aF-0.0761159211397171
aa(lp396
F0.019919387996196747
aF-0.07957573980093002
aF0.03651886805891991
aF-0.07957573980093002
aF0.5345032811164856
aF-0.41863757371902466
aa(lp397
F0.49687498807907104
aF0.4000000059604645
aF0.5218750238418579
aF0.3916666805744171
aF-0.0031250000465661287
aF-0.004166666883975267
aa(lp398
F0.006639785598963499
aF-0.020758893340826035
aF0.023239266127347946
aF-0.020758893340826035
aF-0.009959662333130836
aF-0.020758893340826035
aa(lp399
F0.029879052191972733
aF0.02421868033707142
aF-0.019919387996196747
aF0.01729905605316162
aF0.006639785598963499
aF0.006919622886925936
aF0.006639785598963499
aF0.03459816426038742
aF0.01659948006272316
aF0.006919622886925936
aF-0.006639817263931036
aF0.006919622886925936
aF-0.006639817263931036
aF0.027678539976477623
aF0.01659948006272316
aF0.027678539976477623
aaaa(lp400
aa(lp401
F0.021058108657598495
aF0.0017474787309765816
aF0.21046675741672516
aF0.0
aF-0.47764837741851807
aF0.0827939510345459
aa(lp402
F0.07630788534879684
aF-0.053014568984508514
aF0.3746446371078491
aF0.1834012269973755
aF-0.32176128029823303
aF0.000837997708003968
aaI0
aaa(lp403
F1363684762.772
a(lp404
(lp405
I1363684767
aI412295
aa(lp406
(lp407
(lp408
I0
aF-0.00829974003136158
aF-0.03978788107633591
aF0.18923406302928925
aF0.197209432721138
aa(lp409
I-1
aF0.0
ag9
a(lp410
F0.01659948006272316
aF-0.055357031524181366
aF0.01659948006272316
aF-0.055357031524181366
aF0.03319896012544632
aF-0.06573648750782013
aF0.026559174060821533
aF-0.06919629871845245
aF0.026559174060821533
aF-0.055357031524181366
aF0.029879052191972733
aF-0.07265610992908478
aF0.023239266127347946
aF-0.07265610992908478
aa(lp411
F-0.039838775992393494
aF-0.06573648750782013
aF-0.023239297792315483
aF-0.062276653945446014
aF-0.043158624321222305
aF-0.07265610992908478
aF-0.03319896012544632
aF-0.07957573980093002
aF-0.03319896012544632
aF-0.06573648750782013
aF-0.026559142395853996
aF-0.0761159211397171
aF-0.03651886805891991
aF-0.07957573980093002
aa(lp412
F-0.0
aF-0.08303555101156235
aF0.019919387996196747
aF-0.08303555101156235
aF0.5345032811164856
aF-0.41863757371902466
aa(lp413
F0.512499988079071
aF0.3958333432674408
aF0.534375011920929
aF0.3916666805744171
aF-0.0031250000465661287
aF-0.004166666883975267
aa(lp414
F-0.009959662333130836
aF-0.027678515762090683
aF0.003319908631965518
aF-0.027678515762090683
aF-0.023239297792315483
aF-0.027678515762090683
aa(lp415
F0.009959693998098373
aF0.010379434563219547
aF-0.03319896012544632
aF0.006919622886925936
aF-0.009959662333130836
aF-0.003459811443462968
aF-0.009959662333130836
aF0.020758869126439095
aF-0.003319908631965518
aF-0.003459811443462968
aF-0.019919387996196747
aF-0.003459811443462968
aF-0.019919387996196747
aF0.01729905605316162
aF-0.003319908631965518
aF0.01729905605316162
aaaa(lp416
aa(lp417
F0.021058108657598495
aF0.0017474787309765816
aF0.21046675741672516
aF0.0
aF-0.47764837741851807
aF0.0827939510345459
aa(lp418
F0.07629014551639557
aF-0.05308034271001816
aF0.3746565878391266
aF0.18362434208393097
aF-0.3218109905719757
aF0.0007431165431626141
aaI0
aaa(lp419
F1363684763.126
a(lp420
(lp421
I1363684767
aI879126
aa(lp422
(lp423
(lp424
I0
aF-0.03153903782367706
aF-0.08476545661687851
aF0.18923406302928925
aF0.197209432721138
aa(lp425
I-1
aF0.0
ag9
a(lp426
F-0.009959662333130836
aF-0.10033462941646576
aF-0.009959662333130836
aF-0.10033462941646576
aF0.009959693998098373
aF-0.11071406304836273
aF-0.0
aF-0.11763370782136917
aF-0.0
aF-0.10379444062709808
aF0.006639785598963499
aF-0.11763370782136917
aF-0.003319908631965518
aF-0.11763370782136917
aa(lp427
F-0.06307800859212875
aF-0.11071406304836273
aF-0.04647853225469589
aF-0.10725425183773041
aF-0.06971783190965652
aF-0.11763370782136917
aF-0.05643825605511665
aF-0.1210935190320015
aF-0.05643825605511665
aF-0.10725425183773041
aF-0.04979844018816948
aF-0.1210935190320015
aF-0.06307800859212875
aF-0.1210935190320015
aa(lp428
F-0.019919387996196747
aF-0.12455333024263382
aF-0.003319908631965518
aF-0.12801314890384674
aF0.5345032811164856
aF-0.41863757371902466
aa(lp429
F0.53125
aF0.34583333134651184
aF0.5562499761581421
aF0.34166666865348816
aF-0.0031250000465661287
aF-0.004166666883975267
aa(lp430
F-0.03319896012544632
aF-0.06919629871845245
aF-0.019919387996196747
aF-0.06919629871845245
aF-0.04647853225469589
aF-0.06919629871845245
aa(lp431
F-0.009959662333130836
aF-0.027678515762090683
aF-0.059758104383945465
aF-0.031138326972723007
aF-0.03319896012544632
aF-0.04151778668165207
aF-0.03319896012544632
aF-0.013839269988238811
aF-0.019919387996196747
aF-0.04151778668165207
aF-0.04647853225469589
aF-0.04151778668165207
aF-0.04647853225469589
aF-0.020758893340826035
aF-0.019919387996196747
aF-0.020758893340826035
aaaa(lp432
aa(lp433
F0.021058108657598495
aF0.0017474787309765816
aF0.21046675741672516
aF0.0
aF-0.47764837741851807
aF0.0827939510345459
aa(lp434
F0.07640805840492249
aF-0.05287034437060356
aF0.3746265172958374
aF0.1828526258468628
aF-0.32141223549842834
aF0.0008924470748752356
aaI0
aaa(lp435
F1363684763.472
a(lp436
(lp437
I1363684768
aI412654
aa(lp438
(lp439
(lp440
I0
aF-0.07303773611783981
aF-0.12801314890384674
aF0.19919376075267792
aF0.20758888125419617
aa(lp441
I-1
aF0.0
ag9
a(lp442
F-0.04647853225469589
aF-0.14185239374637604
aF-0.04647853225469589
aF-0.14185239374637604
aF-0.023239297792315483
aF-0.14877203106880188
aF-0.03319896012544632
aF-0.1522318422794342
aF-0.03319896012544632
aF-0.14531221985816956
aF-0.026559142395853996
aF-0.15569165349006653
aF-0.039838775992393494
aF-0.15569165349006653
aa(lp443
F-0.10291679203510284
aF-0.15569165349006653
aF-0.08631730824708939
aF-0.1522318422794342
aF-0.10623670369386673
aF-0.16261129081249237
aF-0.09627696871757507
aF-0.1660711020231247
aF-0.09627696871757507
aF-0.1522318422794342
aF-0.08963721990585327
aF-0.1660711020231247
aF-0.09959688037633896
aF-0.1660711020231247
aa(lp444
F-0.053118348121643066
aF-0.1660711020231247
aF-0.039838775992393494
aF-0.1660711020231247
aF0.5345032811164856
aF-0.41863757371902466
aa(lp445
F0.574999988079071
aF0.2916666567325592
aF0.59375
aF0.28333333134651184
aF-0.0031250000465661287
aF-0.004166666883975267
aa(lp446
F-0.07303773611783981
aF-0.10379444062709808
aF-0.05643825605511665
aF-0.10379444062709808
aF-0.08963721990585327
aF-0.10379444062709808
aa(lp447
F-0.04979844018816948
aF-0.062276653945446014
aF-0.09959688037633896
aF-0.06919629871845245
aF-0.07303773611783981
aF-0.0761159211397171
aF-0.07303773611783981
aF-0.05189722031354904
aF-0.06307800859212875
aF-0.0761159211397171
aF-0.08631730824708939
aF-0.0761159211397171
aF-0.08631730824708939
aF-0.05881684273481369
aF-0.06307800859212875
aF-0.05881684273481369
aaaa(lp448
aa(lp449
F0.021058108657598495
aF0.0017474787309765816
aF0.21046675741672516
aF0.0
aF-0.47764837741851807
aF0.0827939510345459
aa(lp450
F0.07628445327281952
aF-0.05310714989900589
aF0.3746582567691803
aF0.18373332917690277
aF-0.32182878255844116
aF0.0007662277785129845
aaI0
aaa(lp451
F1363684763.826
a(lp452
(lp453
I1363684768
aI412654
aa(lp454
(lp455
(lp456
I0
aF-0.07303773611783981
aF-0.12801314890384674
aF0.19919376075267792
aF0.20758888125419617
aa(lp457
I-1
aF0.0
ag9
a(lp458
F-0.04647853225469589
aF-0.14185239374637604
aF-0.04647853225469589
aF-0.14185239374637604
aF-0.023239297792315483
aF-0.14877203106880188
aF-0.03319896012544632
aF-0.1522318422794342
aF-0.03319896012544632
aF-0.14531221985816956
aF-0.026559142395853996
aF-0.15569165349006653
aF-0.039838775992393494
aF-0.15569165349006653
aa(lp459
F-0.10291679203510284
aF-0.15569165349006653
aF-0.08631730824708939
aF-0.1522318422794342
aF-0.10623670369386673
aF-0.16261129081249237
aF-0.09627696871757507
aF-0.1660711020231247
aF-0.09627696871757507
aF-0.1522318422794342
aF-0.08963721990585327
aF-0.1660711020231247
aF-0.09959688037633896
aF-0.1660711020231247
aa(lp460
F-0.053118348121643066
aF-0.1660711020231247
aF-0.039838775992393494
aF-0.1660711020231247
aF0.5345032811164856
aF-0.41863757371902466
aa(lp461
F0.574999988079071
aF0.2916666567325592
aF0.59375
aF0.28333333134651184
aF-0.0031250000465661287
aF-0.004166666883975267
aa(lp462
F-0.07303773611783981
aF-0.10379444062709808
aF-0.05643825605511665
aF-0.10379444062709808
aF-0.08963721990585327
aF-0.10379444062709808
aa(lp463
F-0.04979844018816948
aF-0.062276653945446014
aF-0.09959688037633896
aF-0.06919629871845245
aF-0.07303773611783981
aF-0.0761159211397171
aF-0.07303773611783981
aF-0.05189722031354904
aF-0.06307800859212875
aF-0.0761159211397171
aF-0.08631730824708939
aF-0.0761159211397171
aF-0.08631730824708939
aF-0.05881684273481369
aF-0.06307800859212875
aF-0.05881684273481369
aaaa(lp464
aa(lp465
F0.021058108657598495
aF0.0017474787309765816
aF0.21046675741672516
aF0.0
aF-0.47764837741851807
aF0.0827939510345459
aa(lp466
F0.07628445327281952
aF-0.05310714989900589
aF0.3746582567691803
aF0.18373332917690277
aF-0.32182878255844116
aF0.0007662277785129845
aaI0
aaa(lp467
F1363684764.184
a(lp468
(lp469
I1363684768
aI879486
aa(lp470
(lp471
(lp472
I0
aF0.05477827042341232
aF-0.1608813852071762
aF0.22907282412052155
aF0.23872721195220947
aa(lp473
I-1
aF0.0
ag9
a(lp474
F0.0829973965883255
aF-0.1833701729774475
aF0.0829973965883255
aF-0.1833701729774475
aF0.10955657809972763
aF-0.19028979539871216
aF0.09959688037633896
aF-0.1972094476222992
aF0.09959688037633896
aF-0.1833701729774475
aF0.10623666644096375
aF-0.20066925883293152
aF0.09295709431171417
aF-0.20066925883293152
aa(lp475
F0.019919387996196747
aF-0.19374960660934448
aF0.03319896012544632
aF-0.1972094476222992
aF0.009959693998098373
aF-0.20066925883293152
aF0.023239266127347946
aF-0.20758888125419617
aF0.023239266127347946
aF-0.19374960660934448
aF0.029879052191972733
aF-0.20758888125419617
aF0.01659948006272316
aF-0.20758888125419617
aa(lp476
F0.07635761797428131
aF-0.20758888125419617
aF0.09295709431171417
aF-0.2110486924648285
aF0.5345032811164856
aF-0.41863757371902466
aa(lp477
F0.4468750059604645
aF0.23749999701976776
aF0.4781250059604645
aF0.2291666716337204
aF-0.0031250000465661287
aF-0.004166666883975267
aa(lp478
F0.056438226252794266
aF-0.1383925825357437
aF0.07635761797428131
aF-0.1383925825357437
aF0.039838746190071106
aF-0.1383925825357437
aa(lp479
F0.08631730824708939
aF-0.089955173432827
aF0.026559174060821533
aF-0.09687481820583344
aF0.05975813418626785
aF-0.10379444062709808
aF0.05975813418626785
aF-0.07265610992908478
aF0.07303770631551743
aF-0.10379444062709808
aF0.04315865412354469
aF-0.10379444062709808
aF0.04315865412354469
aF-0.08649536222219467
aF0.07303770631551743
aF-0.08303555101156235
aaaa(lp480
aa(lp481
F0.021058108657598495
aF0.0017474787309765816
aF0.21046675741672516
aF0.0
aF-0.47764837741851807
aF0.0827939510345459
aa(lp482
F0.07634763419628143
aF-0.05290775001049042
aF0.37464234232902527
aF0.18299581110477448
aF-0.32163721323013306
aF0.0007380088209174573
aaI0
aaa(lp483
F1363684764.533
a(lp484
(lp485
I1363684769
aI413011
aa(lp486
(lp487
(lp488
I0
aF0.17263458669185638
aF-0.15915147960186005
aF0.25895190238952637
aF0.2698655426502228
aa(lp489
I-1
aF0.0
ag9
a(lp490
F0.2124733328819275
aF-0.1972094476222992
aF0.2124733328819275
aF-0.1972094476222992
aF0.23239272832870483
aF-0.1972094476222992
aF0.22575293481349945
aF-0.20066925883293152
aF0.22575293481349945
aF-0.18682998418807983
aF0.22907280921936035
aF-0.20066925883293152
aF0.21911315619945526
aF-0.20066925883293152
aa(lp491
F0.129475936293602
aF-0.19374960660934448
aF0.14607541263103485
aF-0.1972094476222992
aF0.11619635671377182
aF-0.20066925883293152
aF0.13279584050178528
aF-0.20758888125419617
aF0.13279584050178528
aF-0.19028979539871216
aF0.14275553822517395
aF-0.20758888125419617
aF0.1261560618877411
aF-0.20412907004356384
aa(lp492
F0.19919376075267792
aF-0.21796831488609314
aF0.2124733328819275
aF-0.21796831488609314
aF0.5345032811164856
aF-0.41863757371902466
aa(lp493
F0.34375
aF0.23749999701976776
aF0.37812501192092896
aF0.23749999701976776
aF-0.0031250000465661287
aF-0.004166666883975267
aa(lp494
F0.17595449090003967
aF-0.12801314890384674
aF0.19587385654449463
aF-0.12801314890384674
aF0.15603511035442352
aF-0.12801314890384674
aa(lp495
F0.2091534584760666
aF-0.0761159211397171
aF0.13611574470996857
aF-0.07957573980093002
aF0.17595449090003967
aF-0.09341500699520111
aF0.17595449090003967
aF-0.062276653945446014
aF0.19255398213863373
aF-0.09341500699520111
aF0.1593550145626068
aF-0.09341500699520111
aF0.1593550145626068
aF-0.07265610992908478
aF0.19255398213863373
aF-0.07265610992908478
aaaa(lp496
aa(lp497
F0.021058108657598495
aF0.0017474787309765816
aF0.21046675741672516
aF0.0
aF-0.47764837741851807
aF0.0827939510345459
aa(lp498
F0.07638506591320038
aF-0.052910711616277695
aF0.3746333718299866
aF0.18305203318595886
aF-0.32150548696517944
aF0.0009156423038803041
aaI0
aaa(lp499
F1363684764.876
a(lp500
(lp501
I1363684769
aI413011
aa(lp502
(lp503
(lp504
I0
aF0.17263458669185638
aF-0.15915147960186005
aF0.25895190238952637
aF0.2698655426502228
aa(lp505
I-1
aF0.0
ag9
a(lp506
F0.2124733328819275
aF-0.1972094476222992
aF0.2124733328819275
aF-0.1972094476222992
aF0.23239272832870483
aF-0.1972094476222992
aF0.22575293481349945
aF-0.20066925883293152
aF0.22575293481349945
aF-0.18682998418807983
aF0.22907280921936035
aF-0.20066925883293152
aF0.21911315619945526
aF-0.20066925883293152
aa(lp507
F0.129475936293602
aF-0.19374960660934448
aF0.14607541263103485
aF-0.1972094476222992
aF0.11619635671377182
aF-0.20066925883293152
aF0.13279584050178528
aF-0.20758888125419617
aF0.13279584050178528
aF-0.19028979539871216
aF0.14275553822517395
aF-0.20758888125419617
aF0.1261560618877411
aF-0.20412907004356384
aa(lp508
F0.19919376075267792
aF-0.21796831488609314
aF0.2124733328819275
aF-0.21796831488609314
aF0.5345032811164856
aF-0.41863757371902466
aa(lp509
F0.34375
aF0.23749999701976776
aF0.37812501192092896
aF0.23749999701976776
aF-0.0031250000465661287
aF-0.004166666883975267
aa(lp510
F0.17595449090003967
aF-0.12801314890384674
aF0.19587385654449463
aF-0.12801314890384674
aF0.15603511035442352
aF-0.12801314890384674
aa(lp511
F0.2091534584760666
aF-0.0761159211397171
aF0.13611574470996857
aF-0.07957573980093002
aF0.17595449090003967
aF-0.09341500699520111
aF0.17595449090003967
aF-0.062276653945446014
aF0.19255398213863373
aF-0.09341500699520111
aF0.1593550145626068
aF-0.09341500699520111
aF0.1593550145626068
aF-0.07265610992908478
aF0.19255398213863373
aF-0.07265610992908478
aaaa(lp512
aa(lp513
F0.021058108657598495
aF0.0017474787309765816
aF0.21046675741672516
aF0.0
aF-0.47764837741851807
aF0.0827939510345459
aa(lp514
F0.07638506591320038
aF-0.052910711616277695
aF0.3746333718299866
aF0.18305203318595886
aF-0.32150548696517944
aF0.0009156423038803041
aaI0
aaa(lp515
F1363684765.221
a(lp516
(lp517
I1363684769
aI913204
aa(lp518
(lp519
(lp520
I0
aF0.1593550145626068
aF-0.14531221985816956
aF0.25895190238952637
aF0.2698655426502228
aa(lp521
I-1
aF0.0
ag9
a(lp522
F0.18923406302928925
aF-0.17991036176681519
aF0.18923406302928925
aF-0.17991036176681519
aF0.21911315619945526
aF-0.19028979539871216
aF0.2058335393667221
aF-0.19374960660934448
aF0.2058335393667221
aF-0.17991036176681519
aF0.2124733328819275
aF-0.19374960660934448
aF0.19587385654449463
aF-0.19374960660934448
aa(lp523
F0.11619635671377182
aF-0.17645055055618286
aF0.1228361427783966
aF-0.17991036176681519
aF0.10623666644096375
aF-0.19374960660934448
aF0.11287645250558853
aF-0.19374960660934448
aF0.11287645250558853
aF-0.17645055055618286
aF0.11619635671377182
aF-0.19028979539871216
aF0.10955657809972763
aF-0.1972094476222992
aa(lp524
F0.5345032811164856
aF-0.41863757371902466
aF0.5345032811164856
aF-0.41863757371902466
aF0.5345032811164856
aF-0.41863757371902466
aa(lp525
F-0.0031250000465661287
aF-0.004166666883975267
aF-0.0031250000465661287
aF-0.004166666883975267
aF-0.0031250000465661287
aF-0.004166666883975267
aa(lp526
F0.1593550145626068
aF-0.11763370782136917
aF0.18259428441524506
aF-0.11763370782136917
aF0.13943561911582947
aF-0.11763370782136917
aa(lp527
F0.19255398213863373
aF-0.06573648750782013
aF0.1228361427783966
aF-0.06919629871845245
aF0.1593550145626068
aF-0.08303555101156235
aF0.1593550145626068
aF-0.05189722031354904
aF0.17595449090003967
aF-0.08303555101156235
aF0.14275553822517395
aF-0.08303555101156235
aF0.14275553822517395
aF-0.062276653945446014
aF0.17595449090003967
aF-0.062276653945446014
aaaa(lp528
aa(lp529
F0.020929720252752304
aF0.0017368246335536242
aF0.21049907803535461
aF0.0
aF-0.4791823625564575
aF0.0827939510345459
aa(lp530
F0.07614405453205109
aF-0.05316051095724106
aF0.37471306324005127
aF0.18394260108470917
aF-0.32339221239089966
aF0.0004297833947930485
aaI0
aaa(lp531
F1363684765.563
a(lp532
(lp533
I1363684770
aI413377
aa(lp534
(lp535
(lp536
I0
aF0.013279571197926998
aF-0.17299073934555054
aF0.27887123823165894
aF0.2906244397163391
aa(lp537
I-1
aF0.0
ag9
a(lp538
F0.053118348121643066
aF-0.20758888125419617
aF0.053118348121643066
aF-0.20758888125419617
aF0.0829973965883255
aF-0.20758888125419617
aF0.06971783190965652
aF-0.21450850367546082
aF0.06971783190965652
aF-0.20066925883293152
aF0.07967749238014221
aF-0.2248879373073578
aF0.05975813418626785
aF-0.21796831488609314
aa(lp539
F-0.029879052191972733
aF-0.2110486924648285
aF-0.013279571197926998
aF-0.21450850367546082
aF-0.039838775992393494
aF-0.21796831488609314
aF-0.026559142395853996
aF-0.2248879373073578
aF-0.026559142395853996
aF-0.20412907004356384
aF-0.01659948006272316
aF-0.2248879373073578
aF-0.029879052191972733
aF-0.2248879373073578
aa(lp540
F0.03651886805891991
aF-0.2283477783203125
aF0.06307800859212875
aF-0.23180758953094482
aF0.5345032811164856
aF-0.41863757371902466
aa(lp541
F0.4906249940395355
aF0.21250000596046448
aF0.528124988079071
aF0.2083333283662796
aF-0.0031250000465661287
aF-0.004166666883975267
aa(lp542
F0.01659948006272316
aF-0.14185239374637604
aF0.039838746190071106
aF-0.14185239374637604
aF-0.006639817263931036
aF-0.14185239374637604
aa(lp543
F0.04979844018816948
aF-0.07957573980093002
aF-0.026559142395853996
aF-0.08649536222219467
aF0.01659948006272316
aF-0.10033462941646576
aF0.01659948006272316
aF-0.062276653945446014
aF0.03319896012544632
aF-0.10033462941646576
aF-0.003319908631965518
aF-0.10033462941646576
aF-0.003319908631965518
aF-0.07265610992908478
aF0.03319896012544632
aF-0.07265610992908478
aaaa(lp544
aa(lp545
F0.020929720252752304
aF0.0017368246335536242
aF0.21049907803535461
aF0.0
aF-0.4791823625564575
aF0.0827939510345459
aa(lp546
F0.07615837454795837
aF-0.05312565341591835
aF0.3747079372406006
aF0.1838064193725586
aF-0.32334303855895996
aF0.00044464401435106993
aaI0
aaa(lp547
F1363684765.921
a(lp548
(lp549
I1363684770
aI880212
aa(lp550
(lp551
(lp552
I0
aF-0.09129714220762253
aF-0.15396174788475037
aF0.2888309359550476
aF0.3010038733482361
aa(lp553
I-1
aF0.0
ag9
a(lp554
F-0.05643825605511665
aF-0.17299073934555054
aF-0.05643825605511665
aF-0.17299073934555054
aF-0.019919387996196747
aF-0.19028979539871216
aF-0.03651886805891991
aF-0.20412907004356384
aF-0.03651886805891991
aF-0.17991036176681519
aF-0.026559142395853996
aF-0.20758888125419617
aF-0.04647853225469589
aF-0.20412907004356384
aa(lp555
F-0.13943566381931305
aF-0.19374960660934448
aF-0.12283618003129959
aF-0.20412907004356384
aF-0.1560351401567459
aF-0.20412907004356384
aF-0.13611574470996857
aF-0.21450850367546082
aF-0.13611574470996857
aF-0.19028979539871216
aF-0.1261560171842575
aF-0.21450850367546082
aF-0.14607541263103485
aF-0.21450850367546082
aa(lp556
F-0.06971783190965652
aF-0.2248879373073578
aF-0.043158624321222305
aF-0.2283477783203125
aF0.5345032811164856
aF-0.41863757371902466
aa(lp557
F0.606249988079071
aF0.2291666716337204
aF0.6312500238418579
aF0.22499999403953552
aF-0.0031250000465661287
aF-0.004166666883975267
aa(lp558
F-0.07635758072137833
aF-0.11417386680841446
aF-0.06307800859212875
aF-0.11417386680841446
aF-0.09295706450939178
aF-0.11417386680841446
aa(lp559
F-0.05643825605511665
aF-0.05881684273481369
aF-0.13611574470996857
aF-0.062276653945446014
aF-0.09295706450939178
aF-0.0761159211397171
aF-0.09295706450939178
aF-0.038057949393987656
aF-0.07303773611783981
aF-0.07265610992908478
aF-0.11287645250558853
aF-0.0761159211397171
aF-0.11287645250558853
aF-0.04843740910291672
aF-0.07303773611783981
aF-0.04843740910291672
aaaa(lp560
aa(lp561
F0.021058108657598495
aF0.0017474787309765816
aF0.21046675741672516
aF0.0
aF-0.47764837741851807
aF0.0827939510345459
aa(lp562
F0.07626981288194656
aF-0.05313420295715332
aF0.37466222047805786
aF0.1838470846414566
aF-0.3218819797039032
aF0.0007639204268343747
aaI0
aaa(lp563
F1363684766.275
a(lp564
(lp565
I1363684770
aI880212
aa(lp566
(lp567
(lp568
I0
aF-0.09129714220762253
aF-0.15396174788475037
aF0.2888309359550476
aF0.3010038733482361
aa(lp569
I-1
aF0.0
ag9
a(lp570
F-0.05643825605511665
aF-0.17299073934555054
aF-0.05643825605511665
aF-0.17299073934555054
aF-0.019919387996196747
aF-0.19028979539871216
aF-0.03651886805891991
aF-0.20412907004356384
aF-0.03651886805891991
aF-0.17991036176681519
aF-0.026559142395853996
aF-0.20758888125419617
aF-0.04647853225469589
aF-0.20412907004356384
aa(lp571
F-0.13943566381931305
aF-0.19374960660934448
aF-0.12283618003129959
aF-0.20412907004356384
aF-0.1560351401567459
aF-0.20412907004356384
aF-0.13611574470996857
aF-0.21450850367546082
aF-0.13611574470996857
aF-0.19028979539871216
aF-0.1261560171842575
aF-0.21450850367546082
aF-0.14607541263103485
aF-0.21450850367546082
aa(lp572
F-0.06971783190965652
aF-0.2248879373073578
aF-0.043158624321222305
aF-0.2283477783203125
aF0.5345032811164856
aF-0.41863757371902466
aa(lp573
F0.606249988079071
aF0.2291666716337204
aF0.6312500238418579
aF0.22499999403953552
aF-0.0031250000465661287
aF-0.004166666883975267
aa(lp574
F-0.07635758072137833
aF-0.11417386680841446
aF-0.06307800859212875
aF-0.11417386680841446
aF-0.09295706450939178
aF-0.11417386680841446
aa(lp575
F-0.05643825605511665
aF-0.05881684273481369
aF-0.13611574470996857
aF-0.062276653945446014
aF-0.09295706450939178
aF-0.0761159211397171
aF-0.09295706450939178
aF-0.038057949393987656
aF-0.07303773611783981
aF-0.07265610992908478
aF-0.11287645250558853
aF-0.0761159211397171
aF-0.11287645250558853
aF-0.04843740910291672
aF-0.07303773611783981
aF-0.04843740910291672
aaaa(lp576
aa(lp577
F0.021058108657598495
aF0.0017474787309765816
aF0.21046675741672516
aF0.0
aF-0.47764837741851807
aF0.0827939510345459
aa(lp578
F0.07626981288194656
aF-0.05313420295715332
aF0.37466222047805786
aF0.1838470846414566
aF-0.3218819797039032
aF0.0007639204268343747
aaI0
aaa(lp579
F1363684766.628
a(lp580
(lp581
I1363684771
aI447077
aa(lp582
(lp583
(lp584
I0
aF-0.15271523594856262
aF-0.11417386680841446
aF0.2987906336784363
aF0.31138330698013306
aa(lp585
I-1
aF0.0
ag9
a(lp586
F-0.11287645250558853
aF-0.14185239374637604
aF-0.11287645250558853
aF-0.14185239374637604
aF-0.07967749238014221
aF-0.14877203106880188
aF-0.09627696871757507
aF-0.15569165349006653
aF-0.09627696871757507
aF-0.14185239374637604
aF-0.08631730824708939
aF-0.15569165349006653
aF-0.10291679203510284
aF-0.1660711020231247
aa(lp587
F-0.19919376075267792
aF-0.15569165349006653
aF-0.17927436530590057
aF-0.15915147960186005
aF-0.2124733328819275
aF-0.1660711020231247
aF-0.19255393743515015
aF-0.1695309281349182
aF-0.19255393743515015
aF-0.15569165349006653
aF-0.18591418862342834
aF-0.1695309281349182
aF-0.2025136649608612
aF-0.17299073934555054
aa(lp588
F-0.12283618003129959
aF-0.17299073934555054
aF-0.10291679203510284
aF-0.17299073934555054
aF0.5345032811164856
aF-0.41863757371902466
aa(lp589
F0.6656249761581421
aF0.27916666865348816
aF0.684374988079071
aF0.2708333432674408
aF-0.0031250000465661287
aF-0.004166666883975267
aa(lp590
F-0.15271523594856262
aF-0.07265610992908478
aF-0.129475936293602
aF-0.07265610992908478
aF-0.17595446109771729
aF-0.07265610992908478
aa(lp591
F-0.11287645250558853
aF-0.006919622886925936
aF-0.2025136649608612
aF-0.020758893340826035
aF-0.1560351401567459
aF-0.031138326972723007
aF-0.1560351401567459
aF0.006919622886925936
aF-0.13279584050178528
aF-0.031138326972723007
aF-0.17927436530590057
aF-0.031138326972723007
aF-0.17927436530590057
aF-0.006919622886925936
aF-0.13279584050178528
aF-0.003459811443462968
aaaa(lp592
aa(lp593
F0.020929720252752304
aF0.0017368246335536242
aF0.21049907803535461
aF0.0
aF-0.4791823625564575
aF0.0827939510345459
aa(lp594
F0.07616781443357468
aF-0.053114019334316254
aF0.3747072219848633
aF0.183783620595932
aF-0.3233162760734558
aF0.00046771636698395014
aaI0
aaa(lp595
F1363684766.98
a(lp596
(lp597
I1363684771
aI447077
aa(lp598
(lp599
(lp600
I0
aF-0.15271523594856262
aF-0.11417386680841446
aF0.2987906336784363
aF0.31138330698013306
aa(lp601
I-1
aF0.0
ag9
a(lp602
F-0.11287645250558853
aF-0.14185239374637604
aF-0.11287645250558853
aF-0.14185239374637604
aF-0.07967749238014221
aF-0.14877203106880188
aF-0.09627696871757507
aF-0.15569165349006653
aF-0.09627696871757507
aF-0.14185239374637604
aF-0.08631730824708939
aF-0.15569165349006653
aF-0.10291679203510284
aF-0.1660711020231247
aa(lp603
F-0.19919376075267792
aF-0.15569165349006653
aF-0.17927436530590057
aF-0.15915147960186005
aF-0.2124733328819275
aF-0.1660711020231247
aF-0.19255393743515015
aF-0.1695309281349182
aF-0.19255393743515015
aF-0.15569165349006653
aF-0.18591418862342834
aF-0.1695309281349182
aF-0.2025136649608612
aF-0.17299073934555054
aa(lp604
F-0.12283618003129959
aF-0.17299073934555054
aF-0.10291679203510284
aF-0.17299073934555054
aF0.5345032811164856
aF-0.41863757371902466
aa(lp605
F0.6656249761581421
aF0.27916666865348816
aF0.684374988079071
aF0.2708333432674408
aF-0.0031250000465661287
aF-0.004166666883975267
aa(lp606
F-0.15271523594856262
aF-0.07265610992908478
aF-0.129475936293602
aF-0.07265610992908478
aF-0.17595446109771729
aF-0.07265610992908478
aa(lp607
F-0.11287645250558853
aF-0.006919622886925936
aF-0.2025136649608612
aF-0.020758893340826035
aF-0.1560351401567459
aF-0.031138326972723007
aF-0.1560351401567459
aF0.006919622886925936
aF-0.13279584050178528
aF-0.031138326972723007
aF-0.17927436530590057
aF-0.031138326972723007
aF-0.17927436530590057
aF-0.006919622886925936
aF-0.13279584050178528
aF-0.003459811443462968
aaaa(lp608
aa(lp609
F0.020929720252752304
aF0.0017368246335536242
aF0.21049907803535461
aF0.0
aF-0.4791823625564575
aF0.0827939510345459
aa(lp610
F0.07616781443357468
aF-0.053114019334316254
aF0.3747072219848633
aF0.183783620595932
aF-0.3233162760734558
aF0.00046771636698395014
aaI0
aaa(lp611
F1363684767.323
a(lp612
(lp613
I1363684771
aI980601
aa(lp614
(lp615
(lp616
I0
aF-0.05477827042341232
aF-0.07784582674503326
aF0.3286696970462799
aF0.34252163767814636
aa(lp617
I-1
aF0.0
ag9
a(lp618
F-0.009959662333130836
aF-0.10725425183773041
aF-0.009959662333130836
aF-0.10725425183773041
aF0.023239266127347946
aF-0.11763370782136917
aF0.009959693998098373
aF-0.12455333024263382
aF0.009959693998098373
aF-0.10725425183773041
aF0.019919387996196747
aF-0.1210935190320015
aF-0.0
aF-0.12455333024263382
aa(lp619
F-0.10291679203510284
aF-0.12801314890384674
aF-0.0829973965883255
aF-0.13147296011447906
aF-0.1261560171842575
aF-0.13147296011447906
aF-0.10291679203510284
aF-0.14531221985816956
aF-0.10291679203510284
aF-0.1210935190320015
aF-0.09295706450939178
aF-0.14185239374637604
aF-0.11287645250558853
aF-0.14531221985816956
aa(lp620
F-0.019919387996196747
aF-0.15569165349006653
aF0.003319908631965518
aF-0.1660711020231247
aF0.5345032811164856
aF-0.41863757371902466
aa(lp621
F0.565625011920929
aF0.3125
aF0.596875011920929
aF0.30000001192092896
aF-0.0031250000465661287
aF-0.004166666883975267
aa(lp622
F-0.03319896012544632
aF-0.027678515762090683
aF-0.01659948006272316
aF-0.027678515762090683
aF-0.04647853225469589
aF-0.027678515762090683
aa(lp623
F-0.013279571197926998
aF0.03459816426038742
aF-0.10291679203510284
aF0.02421868033707142
aF-0.053118348121643066
aF0.013839245773851871
aF-0.053118348121643066
aF0.062276653945446014
aF-0.029879052191972733
aF0.013839245773851871
aF-0.07967749238014221
aF0.013839245773851871
aF-0.07967749238014221
aF0.04151778668165207
aF-0.029879052191972733
aF0.04497759789228439
aaaa(lp624
aa(lp625
F0.021058108657598495
aF0.0017474787309765816
aF0.21046675741672516
aF0.0
aF-0.47764837741851807
aF0.0827939510345459
aa(lp626
F0.07629632204771042
aF-0.05308592692017555
aF0.3746548295021057
aF0.18363121151924133
aF-0.3217807412147522
aF0.0007563497056253254
aaI0
aaa(lp627
F1363684767.667
a(lp628
(lp629
I1363684772
aI414091
aa(lp630
(lp631
(lp632
I0
aF0.018259434029459953
aF-0.09168510138988495
aF0.34858909249305725
aF0.3632805347442627
aa(lp633
I-1
aF0.0
ag9
a(lp634
F0.06639792025089264
aF-0.12455333024263382
aF0.06639792025089264
aF-0.12455333024263382
aF0.10955657809972763
aF-0.1349327713251114
aF0.08631730824708939
aF-0.14531221985816956
aF0.08631730824708939
aF-0.12455333024263382
aF0.09959688037633896
aF-0.14185239374637604
aF0.07635761797428131
aF-0.14531221985816956
aa(lp635
F-0.03319896012544632
aF-0.14531221985816956
aF-0.006639817263931036
aF-0.14185239374637604
aF-0.059758104383945465
aF-0.1522318422794342
aF-0.03319896012544632
aF-0.16261129081249237
aF-0.03319896012544632
aF-0.14185239374637604
aF-0.01659948006272316
aF-0.15915147960186005
aF-0.043158624321222305
aF-0.16261129081249237
aa(lp636
F0.05975813418626785
aF-0.15915147960186005
aF0.07967749238014221
aF-0.16261129081249237
aF0.5345032811164856
aF-0.41863757371902466
aa(lp637
F0.5062500238418579
aF0.2874999940395355
aF0.528124988079071
aF0.2750000059604645
aF-0.0031250000465661287
aF-0.004166666883975267
aa(lp638
F0.04647853225469589
aF-0.04151778668165207
aF0.056438226252794266
aF-0.04151778668165207
aF0.029879052191972733
aF-0.04151778668165207
aa(lp639
F0.06971783190965652
aF0.027678539976477623
aF-0.03319896012544632
aF0.01729905605316162
aF0.023239266127347946
aF0.006919622886925936
aF0.023239266127347946
aF0.04497759789228439
aF0.04979844018816948
aF0.006919622886925936
aF-0.006639817263931036
aF0.006919622886925936
aF-0.006639817263931036
aF0.03459816426038742
aF0.04979844018816948
aF0.03459816426038742
aaaa(lp640
aa(lp641
F0.021058108657598495
aF0.0017474787309765816
aF0.21046675741672516
aF0.0
aF-0.47764837741851807
aF0.0827939510345459
aa(lp642
F0.07632839679718018
aF-0.05302084609866142
aF0.3746475577354431
aF0.18344198167324066
aF-0.3216894268989563
aF0.0008393735042773187
aaI0
aaa(lp643
F1363684768.024
a(lp644
(lp645
I1363684772
aI880920
aa(lp646
(lp647
(lp648
I0
aF0.026559174060821533
aF-0.12455333024263382
aF0.3386293947696686
aF0.3529011011123657
aa(lp649
I-1
aF0.0
ag9
a(lp650
F0.07303770631551743
aF-0.15569165349006653
aF0.07303770631551743
aF-0.15569165349006653
aF0.11287645250558853
aF-0.16261129081249237
aF0.09295709431171417
aF-0.17645055055618286
aF0.09295709431171417
aF-0.15569165349006653
aF0.10291679203510284
aF-0.17645055055618286
aF0.0829973965883255
aF-0.17645055055618286
aa(lp651
F-0.026559142395853996
aF-0.17645055055618286
aF0.003319908631965518
aF-0.17299073934555054
aF-0.039838775992393494
aF-0.19028979539871216
aF-0.01659948006272316
aF-0.19374960660934448
aF-0.01659948006272316
aF-0.17299073934555054
aF-0.006639817263931036
aF-0.19028979539871216
aF-0.029879052191972733
aF-0.19374960660934448
aa(lp652
F0.06307800859212875
aF-0.19374960660934448
aF0.0829973965883255
aF-0.19374960660934448
aF0.5345032811164856
aF-0.41863757371902466
aa(lp653
F0.48124998807907104
aF0.2541666626930237
aF0.5218750238418579
aF0.23749999701976776
aF-0.0031250000465661287
aF-0.004166666883975267
aa(lp654
F0.006639785598963499
aF-0.08649536222219467
aF0.023239266127347946
aF-0.08649536222219467
aF-0.009959662333130836
aF-0.08649536222219467
aa(lp655
F0.06971783190965652
aF-0.013839269988238811
aF-0.029879052191972733
aF-0.02421870455145836
aF0.023239266127347946
aF-0.03459813818335533
aF0.023239266127347946
aF0.003459811443462968
aF0.04979844018816948
aF-0.03459813818335533
aF-0.003319908631965518
aF-0.03459813818335533
aF-0.003319908631965518
aF-0.006919622886925936
aF0.04979844018816948
aF-0.006919622886925936
aaaa(lp656
aa(lp657
F0.020929720252752304
aF0.0017368246335536242
aF0.21049907803535461
aF0.0
aF-0.4791823625564575
aF0.0827939510345459
aa(lp658
F0.07615920901298523
aF-0.05312873423099518
aF0.37470996379852295
aF0.1838638037443161
aF-0.32335320115089417
aF0.0004829150275327265
aaI0
aaa(lp659
F1363684768.378
a(lp660
(lp661
I1363684772
aI880920
aa(lp662
(lp663
(lp664
I0
aF0.026559174060821533
aF-0.12455333024263382
aF0.3386293947696686
aF0.3529011011123657
aa(lp665
I-1
aF0.0
ag9
a(lp666
F0.07303770631551743
aF-0.15569165349006653
aF0.07303770631551743
aF-0.15569165349006653
aF0.11287645250558853
aF-0.16261129081249237
aF0.09295709431171417
aF-0.17645055055618286
aF0.09295709431171417
aF-0.15569165349006653
aF0.10291679203510284
aF-0.17645055055618286
aF0.0829973965883255
aF-0.17645055055618286
aa(lp667
F-0.026559142395853996
aF-0.17645055055618286
aF0.003319908631965518
aF-0.17299073934555054
aF-0.039838775992393494
aF-0.19028979539871216
aF-0.01659948006272316
aF-0.19374960660934448
aF-0.01659948006272316
aF-0.17299073934555054
aF-0.006639817263931036
aF-0.19028979539871216
aF-0.029879052191972733
aF-0.19374960660934448
aa(lp668
F0.06307800859212875
aF-0.19374960660934448
aF0.0829973965883255
aF-0.19374960660934448
aF0.5345032811164856
aF-0.41863757371902466
aa(lp669
F0.48124998807907104
aF0.2541666626930237
aF0.5218750238418579
aF0.23749999701976776
aF-0.0031250000465661287
aF-0.004166666883975267
aa(lp670
F0.006639785598963499
aF-0.08649536222219467
aF0.023239266127347946
aF-0.08649536222219467
aF-0.009959662333130836
aF-0.08649536222219467
aa(lp671
F0.06971783190965652
aF-0.013839269988238811
aF-0.029879052191972733
aF-0.02421870455145836
aF0.023239266127347946
aF-0.03459813818335533
aF0.023239266127347946
aF0.003459811443462968
aF0.04979844018816948
aF-0.03459813818335533
aF-0.003319908631965518
aF-0.03459813818335533
aF-0.003319908631965518
aF-0.006919622886925936
aF0.04979844018816948
aF-0.006919622886925936
aaaa(lp672
aa(lp673
F0.020929720252752304
aF0.0017368246335536242
aF0.21049907803535461
aF0.0
aF-0.4791823625564575
aF0.0827939510345459
aa(lp674
F0.07615920901298523
aF-0.05312873423099518
aF0.37470996379852295
aF0.1838638037443161
aF-0.32335320115089417
aF0.0004829150275327265
aaI0
aaa(lp675
F1363684768.72
a(lp676
(lp677
I1363684773
aI414447
aa(lp678
(lp679
(lp680
I0
aF-0.06307800859212875
aF-0.19028979539871216
aF0.25895190238952637
aF0.2698655426502228
aa(lp681
I-1
aF0.0
ag9
a(lp682
F-0.03319896012544632
aF-0.2248879373073578
aF-0.03319896012544632
aF-0.2248879373073578
aF-0.003319908631965518
aF-0.21450850367546082
aF-0.01659948006272316
aF-0.23872721195220947
aF-0.01659948006272316
aF-0.2110486924648285
aF-0.006639817263931036
aF-0.23872721195220947
aF-0.023239297792315483
aF-0.2283477783203125
aa(lp683
F-0.10623670369386673
aF-0.2248879373073578
aF-0.08631730824708939
aF-0.2248879373073578
aF-0.12283618003129959
aF-0.23872721195220947
aF-0.10291679203510284
aF-0.24564684927463531
aF-0.10291679203510284
aF-0.2248879373073578
aF-0.09627696871757507
aF-0.242187038064003
aF-0.11287645250558853
aF-0.24564684927463531
aa(lp684
F0.5345032811164856
aF-0.41863757371902466
aF0.5345032811164856
aF-0.41863757371902466
aF0.5345032811164856
aF-0.41863757371902466
aa(lp685
F-0.0031250000465661287
aF-0.004166666883975267
aF-0.0031250000465661287
aF-0.004166666883975267
aF-0.0031250000465661287
aF-0.004166666883975267
aa(lp686
F-0.0829973965883255
aF-0.16261129081249237
aF-0.06639792025089264
aF-0.16261129081249237
aF-0.10291679203510284
aF-0.16261129081249237
aa(lp687
F-0.023239297792315483
aF-0.09341500699520111
aF-0.10955654084682465
aF-0.10379444062709808
aF-0.06307800859212875
aF-0.1210935190320015
aF-0.06307800859212875
aF-0.07957573980093002
aF-0.043158624321222305
aF-0.1210935190320015
aF-0.08631730824708939
aF-0.1210935190320015
aF-0.08631730824708939
aF-0.09341500699520111
aF-0.043158624321222305
aF-0.089955173432827
aaaa(lp688
aa(lp689
F0.020929720252752304
aF0.0017368246335536242
aF0.21049907803535461
aF0.0
aF-0.4791823625564575
aF0.0827939510345459
aa(lp690
F0.07625235617160797
aF-0.052951447665691376
aF0.3746858835220337
aF0.18318746984004974
aF-0.3230341374874115
aF0.0005633120890706778
aaI0
aaa(lp691
F1363684769.066
a(lp692
(lp693
I1363684773
aI881287
aa(lp694
(lp695
(lp696
I0
aF-0.07801757007837296
aF-0.17126083374023438
aF0.2888309359550476
aF0.3010038733482361
aa(lp697
I-1
aF0.0
ag9
a(lp698
F-0.039838775992393494
aF-0.20066925883293152
aF-0.039838775992393494
aF-0.20066925883293152
aF-0.009959662333130836
aF-0.2110486924648285
aF-0.023239297792315483
aF-0.22142812609672546
aF-0.023239297792315483
aF-0.20412907004356384
aF-0.013279571197926998
aF-0.22142812609672546
aF-0.029879052191972733
aF-0.22142812609672546
aa(lp699
F-0.12283618003129959
aF-0.21796831488609314
aF-0.10955654084682465
aF-0.21796831488609314
aF-0.14607541263103485
aF-0.21796831488609314
aF-0.129475936293602
aF-0.23180758953094482
aF-0.129475936293602
aF-0.21796831488609314
aF-0.1195162683725357
aF-0.23180758953094482
aF-0.13611574470996857
aF-0.23180758953094482
aa(lp700
F-0.059758104383945465
aF-0.24910666048526764
aF-0.029879052191972733
aF-0.2560262978076935
aF0.5345032811164856
aF-0.41863757371902466
aa(lp701
F0.581250011920929
aF0.20000000298023224
aF0.6156250238418579
aF0.19166666269302368
aF-0.0031250000465661287
aF-0.004166666883975267
aa(lp702
F-0.07967749238014221
aF-0.15569165349006653
aF-0.05643825605511665
aF-0.15569165349006653
aF-0.10291679203510284
aF-0.15569165349006653
aa(lp703
F-0.03651886805891991
aF-0.089955173432827
aF-0.11619635671377182
aF-0.10033462941646576
aF-0.07303773611783981
aF-0.11417386680841446
aF-0.07303773611783981
aF-0.07957573980093002
aF-0.04979844018816948
aF-0.11417386680841446
aF-0.09295706450939178
aF-0.11417386680841446
aF-0.09295706450939178
aF-0.089955173432827
aF-0.04979844018816948
aF-0.08303555101156235
aaaa(lp704
aa(lp705
F0.021058108657598495
aF0.0017474787309765816
aF0.21046675741672516
aF0.0
aF-0.47764837741851807
aF0.0827939510345459
aa(lp706
F0.07630372047424316
aF-0.05307156965136528
aF0.37465301156044006
aF0.18358078598976135
aF-0.3217567205429077
aF0.0007668361649848521
aaI0
aaa(lp707
F1363684769.422
a(lp708
(lp709
I1363684774
aI414804
aa(lp710
(lp711
(lp712
I0
aF-0.004979831166565418
aF-0.16780100762844086
aF0.26891160011291504
aF0.28024500608444214
aa(lp713
I-1
aF0.0
ag9
a(lp714
F0.026559174060821533
aF-0.20066925883293152
aF0.026559174060821533
aF-0.20066925883293152
aF0.06639792025089264
aF-0.20066925883293152
aF0.04647853225469589
aF-0.21450850367546082
aF0.04647853225469589
aF-0.19374960660934448
aF0.056438226252794266
aF-0.21450850367546082
aF0.039838746190071106
aF-0.21450850367546082
aa(lp715
F-0.04647853225469589
aF-0.20758888125419617
aF-0.026559142395853996
aF-0.20066925883293152
aF-0.06307800859212875
aF-0.21450850367546082
aF-0.04647853225469589
aF-0.22142812609672546
aF-0.04647853225469589
aF-0.20412907004356384
aF-0.03651886805891991
aF-0.22142812609672546
aF-0.053118348121643066
aF-0.22142812609672546
aa(lp716
F0.01659948006272316
aF-0.242187038064003
aF0.039838746190071106
aF-0.24564684927463531
aF0.5345032811164856
aF-0.41863757371902466
aa(lp717
F0.5093749761581421
aF0.2083333283662796
aF0.543749988079071
aF0.20416666567325592
aF-0.0031250000465661287
aF-0.004166666883975267
aa(lp718
F-0.0
aF-0.14185239374637604
aF0.023239266127347946
aF-0.14185239374637604
aF-0.019919387996196747
aF-0.14185239374637604
aa(lp719
F0.039838746190071106
aF-0.0761159211397171
aF-0.04647853225469589
aF-0.08303555101156235
aF-0.0
aF-0.10379444062709808
aF-0.0
aF-0.06573648750782013
aF0.019919387996196747
aF-0.10379444062709808
aF-0.023239297792315483
aF-0.10379444062709808
aF-0.023239297792315483
aF-0.0761159211397171
aF0.019919387996196747
aF-0.0761159211397171
aaaa(lp720
aa(lp721
F0.021058108657598495
aF0.0017474787309765816
aF0.21046675741672516
aF0.0
aF-0.47764837741851807
aF0.0827939510345459
aa(lp722
F0.0763460025191307
aF-0.052989184856414795
aF0.3746424615383148
aF0.18329410254955292
aF-0.32162025570869446
aF0.000828866905067116
aaI0
aaa(lp723
F1363684769.762
a(lp724
(lp725
I1363684774
aI414804
aa(lp726
(lp727
(lp728
I0
aF-0.004979831166565418
aF-0.16780100762844086
aF0.26891160011291504
aF0.28024500608444214
aa(lp729
I-1
aF0.0
ag9
a(lp730
F0.026559174060821533
aF-0.20066925883293152
aF0.026559174060821533
aF-0.20066925883293152
aF0.06639792025089264
aF-0.20066925883293152
aF0.04647853225469589
aF-0.21450850367546082
aF0.04647853225469589
aF-0.19374960660934448
aF0.056438226252794266
aF-0.21450850367546082
aF0.039838746190071106
aF-0.21450850367546082
aa(lp731
F-0.04647853225469589
aF-0.20758888125419617
aF-0.026559142395853996
aF-0.20066925883293152
aF-0.06307800859212875
aF-0.21450850367546082
aF-0.04647853225469589
aF-0.22142812609672546
aF-0.04647853225469589
aF-0.20412907004356384
aF-0.03651886805891991
aF-0.22142812609672546
aF-0.053118348121643066
aF-0.22142812609672546
aa(lp732
F0.01659948006272316
aF-0.242187038064003
aF0.039838746190071106
aF-0.24564684927463531
aF0.5345032811164856
aF-0.41863757371902466
aa(lp733
F0.5093749761581421
aF0.2083333283662796
aF0.543749988079071
aF0.20416666567325592
aF-0.0031250000465661287
aF-0.004166666883975267
aa(lp734
F-0.0
aF-0.14185239374637604
aF0.023239266127347946
aF-0.14185239374637604
aF-0.019919387996196747
aF-0.14185239374637604
aa(lp735
F0.039838746190071106
aF-0.0761159211397171
aF-0.04647853225469589
aF-0.08303555101156235
aF-0.0
aF-0.10379444062709808
aF-0.0
aF-0.06573648750782013
aF0.019919387996196747
aF-0.10379444062709808
aF-0.023239297792315483
aF-0.10379444062709808
aF-0.023239297792315483
aF-0.0761159211397171
aF0.019919387996196747
aF-0.0761159211397171
aaaa(lp736
aa(lp737
F0.021058108657598495
aF0.0017474787309765816
aF0.21046675741672516
aF0.0
aF-0.47764837741851807
aF0.0827939510345459
aa(lp738
F0.0763460025191307
aF-0.052989184856414795
aF0.3746424615383148
aF0.18329410254955292
aF-0.32162025570869446
aF0.000828866905067116
aaI0
aaa(lp739
F1363684770.122
a(lp740
(lp741
I1363684774
aI881646
aa(lp742
(lp743
(lp744
I0
aF0.11785632371902466
aF-0.17126083374023438
aF0.2888309359550476
aF0.3010038733482361
aa(lp745
I-1
aF0.0
ag9
a(lp746
F0.15603511035442352
aF-0.20412907004356384
aF0.15603511035442352
aF-0.20412907004356384
aF0.18591418862342834
aF-0.21450850367546082
aF0.17263458669185638
aF-0.22142812609672546
aF0.17263458669185638
aF-0.20412907004356384
aF0.18259428441524506
aF-0.22142812609672546
aF0.165994793176651
aF-0.22142812609672546
aa(lp747
F0.07303770631551743
aF-0.21450850367546082
aF0.09627696871757507
aF-0.21450850367546082
aF0.04979844018816948
aF-0.21796831488609314
aF0.07635761797428131
aF-0.23180758953094482
aF0.07635761797428131
aF-0.21450850367546082
aF0.08963718265295029
aF-0.23180758953094482
aF0.06307800859212875
aF-0.23180758953094482
aa(lp748
F0.15271523594856262
aF-0.24564684927463531
aF0.165994793176651
aF-0.24564684927463531
aF0.5345032811164856
aF-0.41863757371902466
aa(lp749
F0.39375001192092896
aF0.20416666567325592
aF0.4312500059604645
aF0.20416666567325592
aF-0.0031250000465661287
aF-0.004166666883975267
aa(lp750
F0.1228361427783966
aF-0.14877203106880188
aF0.14939531683921814
aF-0.14877203106880188
aF0.09959688037633896
aF-0.14877203106880188
aa(lp751
F0.165994793176651
aF-0.08649536222219467
aF0.07967749238014221
aF-0.09687481820583344
aF0.1261560618877411
aF-0.11071406304836273
aF0.1261560618877411
aF-0.0761159211397171
aF0.14939531683921814
aF-0.11071406304836273
aF0.10623666644096375
aF-0.11071406304836273
aF0.10623666644096375
aF-0.089955173432827
aF0.14939531683921814
aF-0.08649536222219467
aaaa(lp752
aa(lp753
F0.021058108657598495
aF0.0017474787309765816
aF0.21046675741672516
aF0.0
aF-0.47764837741851807
aF0.0827939510345459
aa(lp754
F0.07632767409086227
aF-0.053024016320705414
aF0.37464699149131775
aF0.1834145486354828
aF-0.3216792047023773
aF0.0008003304828889668
aaI0
aaa(lp755
F1363684770.468
a(lp756
(lp757
I1363684775
aI415165
aa(lp758
(lp759
(lp760
I0
aF0.15603511035442352
aF-0.1660711020231247
aF0.27887123823165894
aF0.2906244397163391
aa(lp761
I-1
aF0.0
ag9
a(lp762
F0.19587385654449463
aF-0.19374960660934448
aF0.19587385654449463
aF-0.19374960660934448
aF0.22243303060531616
aF-0.20066925883293152
aF0.2091534584760666
aF-0.21450850367546082
aF0.2091534584760666
aF-0.19374960660934448
aF0.21911315619945526
aF-0.20758888125419617
aF0.2058335393667221
aF-0.21450850367546082
aa(lp763
F0.10955657809972763
aF-0.20066925883293152
aF0.13279584050178528
aF-0.20066925883293152
aF0.09627696871757507
aF-0.20758888125419617
aF0.11619635671377182
aF-0.21796831488609314
aF0.11619635671377182
aF-0.20066925883293152
aF0.1261560618877411
aF-0.21796831488609314
aF0.10623666644096375
aF-0.21796831488609314
aa(lp764
F0.18591418862342834
aF-0.23180758953094482
aF0.19919376075267792
aF-0.23180758953094482
aF0.5345032811164856
aF-0.41863757371902466
aa(lp765
F0.359375
aF0.22083333134651184
aF0.39375001192092896
aF0.22083333134651184
aF-0.0031250000465661287
aF-0.004166666883975267
aa(lp766
F0.1593550145626068
aF-0.1349327713251114
aF0.18259428441524506
aF-0.1349327713251114
aF0.13943561911582947
aF-0.1349327713251114
aa(lp767
F0.19919376075267792
aF-0.0761159211397171
aF0.11619635671377182
aF-0.08303555101156235
aF0.1593550145626068
aF-0.09687481820583344
aF0.1593550145626068
aF-0.062276653945446014
aF0.17927436530590057
aF-0.09687481820583344
aF0.13611574470996857
aF-0.09687481820583344
aF0.13611574470996857
aF-0.0761159211397171
aF0.17927436530590057
aF-0.07265610992908478
aaaa(lp768
aa(lp769
F0.021058108657598495
aF0.0017474787309765816
aF0.21046675741672516
aF0.0
aF-0.47764837741851807
aF0.0827939510345459
aa(lp770
F0.07629933953285217
aF-0.053030356764793396
aF0.37464678287506104
aF0.1834597885608673
aF-0.32178860902786255
aF0.0008285350049845874
aaI0
aaa(lp771
F1363684770.814
a(lp772
(lp773
I1363684775
aI415165
aa(lp774
(lp775
(lp776
I0
aF0.15603511035442352
aF-0.1660711020231247
aF0.27887123823165894
aF0.2906244397163391
aa(lp777
I-1
aF0.0
ag9
a(lp778
F0.19587385654449463
aF-0.19374960660934448
aF0.19587385654449463
aF-0.19374960660934448
aF0.22243303060531616
aF-0.20066925883293152
aF0.2091534584760666
aF-0.21450850367546082
aF0.2091534584760666
aF-0.19374960660934448
aF0.21911315619945526
aF-0.20758888125419617
aF0.2058335393667221
aF-0.21450850367546082
aa(lp779
F0.10955657809972763
aF-0.20066925883293152
aF0.13279584050178528
aF-0.20066925883293152
aF0.09627696871757507
aF-0.20758888125419617
aF0.11619635671377182
aF-0.21796831488609314
aF0.11619635671377182
aF-0.20066925883293152
aF0.1261560618877411
aF-0.21796831488609314
aF0.10623666644096375
aF-0.21796831488609314
aa(lp780
F0.18591418862342834
aF-0.23180758953094482
aF0.19919376075267792
aF-0.23180758953094482
aF0.5345032811164856
aF-0.41863757371902466
aa(lp781
F0.359375
aF0.22083333134651184
aF0.39375001192092896
aF0.22083333134651184
aF-0.0031250000465661287
aF-0.004166666883975267
aa(lp782
F0.1593550145626068
aF-0.1349327713251114
aF0.18259428441524506
aF-0.1349327713251114
aF0.13943561911582947
aF-0.1349327713251114
aa(lp783
F0.19919376075267792
aF-0.0761159211397171
aF0.11619635671377182
aF-0.08303555101156235
aF0.1593550145626068
aF-0.09687481820583344
aF0.1593550145626068
aF-0.062276653945446014
aF0.17927436530590057
aF-0.09687481820583344
aF0.13611574470996857
aF-0.09687481820583344
aF0.13611574470996857
aF-0.0761159211397171
aF0.17927436530590057
aF-0.07265610992908478
aaaa(lp784
aa(lp785
F0.021058108657598495
aF0.0017474787309765816
aF0.21046675741672516
aF0.0
aF-0.47764837741851807
aF0.0827939510345459
aa(lp786
F0.07629933953285217
aF-0.053030356764793396
aF0.37464678287506104
aF0.1834597885608673
aF-0.32178860902786255
aF0.0008285350049845874
aaI0
aaa(lp787
F1363684771.163
a(lp788
(lp789
I1363684775
aI881997
aa(lp790
(lp791
(lp792
I0
aF0.10623666644096375
aF-0.12455333024263382
aF0.27887123823165894
aF0.2906244397163391
aa(lp793
I-1
aF0.0
ag9
a(lp794
F0.14275553822517395
aF-0.15915147960186005
aF0.14275553822517395
aF-0.15915147960186005
aF0.17263458669185638
aF-0.15915147960186005
aF0.1593550145626068
aF-0.1660711020231247
aF0.1593550145626068
aF-0.14877203106880188
aF0.16931471228599548
aF-0.1660711020231247
aF0.15271523594856262
aF-0.1660711020231247
aa(lp795
F0.05975813418626785
aF-0.15915147960186005
aF0.07303770631551743
aF-0.1660711020231247
aF0.04647853225469589
aF-0.1660711020231247
aF0.05975813418626785
aF-0.17299073934555054
aF0.05975813418626785
aF-0.15915147960186005
aF0.06639792025089264
aF-0.17299073934555054
aF0.053118348121643066
aF-0.17645055055618286
aa(lp796
F0.13611574470996857
aF-0.1833701729774475
aF0.14939531683921814
aF-0.1833701729774475
aF0.5345032811164856
aF-0.41863757371902466
aa(lp797
F0.40937501192092896
aF0.27916666865348816
aF0.4437499940395355
aF0.27916666865348816
aF-0.0031250000465661287
aF-0.004166666883975267
aa(lp798
F0.11287645250558853
aF-0.089955173432827
aF0.13279584050178528
aF-0.089955173432827
aF0.08963718265295029
aF-0.089955173432827
aa(lp799
F0.14607541263103485
aF-0.031138326972723007
aF0.06307800859212875
aF-0.03459813818335533
aF0.10623666644096375
aF-0.05189722031354904
aF0.10623666644096375
aF-0.010379434563219547
aF0.1261560618877411
aF-0.05189722031354904
aF0.0829973965883255
aF-0.05189722031354904
aF0.0829973965883255
aF-0.02421870455145836
aF0.1261560618877411
aF-0.020758893340826035
aaaa(lp800
aa(lp801
F0.021058108657598495
aF0.0017474787309765816
aF0.21046675741672516
aF0.0
aF-0.47764837741851807
aF0.0827939510345459
aa(lp802
F0.0763840526342392
aF-0.05291088670492172
aF0.3746339976787567
aF0.1830778270959854
aF-0.32151544094085693
aF0.0009391101193614304
aaI0
aaa(lp803
F1363684771.525
a(lp804
(lp805
I1363684776
aI382202
aa(lp806
(lp807
(lp808
I0
aF0.03319896012544632
aF-0.05881684273481369
aF0.27887123823165894
aF0.2906244397163391
aa(lp809
I-1
aF0.0
ag9
a(lp810
F0.06971783190965652
aF-0.07957573980093002
aF0.06971783190965652
aF-0.07957573980093002
aF0.09959688037633896
aF-0.09341500699520111
aF0.08631730824708939
aF-0.10033462941646576
aF0.08631730824708939
aF-0.08303555101156235
aF0.09627696871757507
aF-0.10033462941646576
aF0.07635761797428131
aF-0.10033462941646576
aa(lp811
F-0.013279571197926998
aF-0.09341500699520111
aF0.006639785598963499
aF-0.09341500699520111
aF-0.023239297792315483
aF-0.10725425183773041
aF-0.006639817263931036
aF-0.11071406304836273
aF-0.006639817263931036
aF-0.09341500699520111
aF0.003319908631965518
aF-0.10725425183773041
aF-0.01659948006272316
aF-0.11071406304836273
aa(lp812
F0.05975813418626785
aF-0.11417386680841446
aF0.07967749238014221
aF-0.1210935190320015
aF0.5345032811164856
aF-0.41863757371902466
aa(lp813
F0.484375
aF0.3499999940395355
aF0.5093749761581421
aF0.3375000059604645
aF-0.0031250000465661287
aF-0.004166666883975267
aa(lp814
F0.029879052191972733
aF-0.02421870455145836
aF0.053118348121643066
aF-0.02421870455145836
aF0.009959693998098373
aF-0.02421870455145836
aa(lp815
F0.06639792025089264
aF0.038057975471019745
aF-0.006639817263931036
aF0.027678539976477623
aF0.03319896012544632
aF0.013839245773851871
aF0.03319896012544632
aF0.055357031524181366
aF0.04979844018816948
aF0.013839245773851871
aF0.01659948006272316
aF0.013839245773851871
aF0.01659948006272316
aF0.04151778668165207
aF0.04979844018816948
aF0.04497759789228439
aaaa(lp816
aa(lp817
F0.021058108657598495
aF0.0017474787309765816
aF0.21046675741672516
aF0.0
aF-0.47764837741851807
aF0.0827939510345459
aa(lp818
F0.07636409997940063
aF-0.05294625833630562
aF0.37463852763175964
aF0.18317624926567078
aF-0.3215734362602234
aF0.0008804284152574837
aaI0
aaa(lp819
F1363684771.869
a(lp820
(lp821
I1363684776
aI382202
aa(lp822
(lp823
(lp824
I0
aF0.03319896012544632
aF-0.05881684273481369
aF0.27887123823165894
aF0.2906244397163391
aa(lp825
I-1
aF0.0
ag9
a(lp826
F0.06971783190965652
aF-0.07957573980093002
aF0.06971783190965652
aF-0.07957573980093002
aF0.09959688037633896
aF-0.09341500699520111
aF0.08631730824708939
aF-0.10033462941646576
aF0.08631730824708939
aF-0.08303555101156235
aF0.09627696871757507
aF-0.10033462941646576
aF0.07635761797428131
aF-0.10033462941646576
aa(lp827
F-0.013279571197926998
aF-0.09341500699520111
aF0.006639785598963499
aF-0.09341500699520111
aF-0.023239297792315483
aF-0.10725425183773041
aF-0.006639817263931036
aF-0.11071406304836273
aF-0.006639817263931036
aF-0.09341500699520111
aF0.003319908631965518
aF-0.10725425183773041
aF-0.01659948006272316
aF-0.11071406304836273
aa(lp828
F0.05975813418626785
aF-0.11417386680841446
aF0.07967749238014221
aF-0.1210935190320015
aF0.5345032811164856
aF-0.41863757371902466
aa(lp829
F0.484375
aF0.3499999940395355
aF0.5093749761581421
aF0.3375000059604645
aF-0.0031250000465661287
aF-0.004166666883975267
aa(lp830
F0.029879052191972733
aF-0.02421870455145836
aF0.053118348121643066
aF-0.02421870455145836
aF0.009959693998098373
aF-0.02421870455145836
aa(lp831
F0.06639792025089264
aF0.038057975471019745
aF-0.006639817263931036
aF0.027678539976477623
aF0.03319896012544632
aF0.013839245773851871
aF0.03319896012544632
aF0.055357031524181366
aF0.04979844018816948
aF0.013839245773851871
aF0.01659948006272316
aF0.013839245773851871
aF0.01659948006272316
aF0.04151778668165207
aF0.04979844018816948
aF0.04497759789228439
aaaa(lp832
aa(lp833
F0.021058108657598495
aF0.0017474787309765816
aF0.21046675741672516
aF0.0
aF-0.47764837741851807
aF0.0827939510345459
aa(lp834
F0.07636409997940063
aF-0.05294625833630562
aF0.37463852763175964
aF0.18317624926567078
aF-0.3215734362602234
aF0.0008804284152574837
aaI0
aaa(lp835
F1363684772.215
a(lp836
(lp837
I1363684776
aI915704
aa(lp838
(lp839
(lp840
I0
aF-0.00829974003136158
aF0.03286823257803917
aF0.2888309359550476
aF0.3010038733482361
aa(lp841
I-1
aF0.0
ag9
a(lp842
F0.03651886805891991
aF-0.010379434563219547
aF0.03651886805891991
aF-0.010379434563219547
aF0.06639792025089264
aF-0.006919622886925936
aF0.053118348121643066
aF-0.01729908213019371
aF0.053118348121643066
aF-0.003459811443462968
aF0.06307800859212875
aF-0.01729908213019371
aF0.04315865412354469
aF-0.01729908213019371
aa(lp843
F-0.053118348121643066
aF-0.010379434563219547
aF-0.043158624321222305
aF-0.006919622886925936
aF-0.06971783190965652
aF-0.01729908213019371
aF-0.05643825605511665
aF-0.02421870455145836
aF-0.05643825605511665
aF-0.006919622886925936
aF-0.04979844018816948
aF-0.02421870455145836
aF-0.06307800859212875
aF-0.031138326972723007
aa(lp844
F0.023239266127347946
aF-0.031138326972723007
aF0.039838746190071106
aF-0.03459813818335533
aF0.5345032811164856
aF-0.41863757371902466
aa(lp845
F0.5249999761581421
aF0.4541666805744171
aF0.550000011920929
aF0.44583332538604736
aF-0.0031250000465661287
aF-0.004166666883975267
aa(lp846
F-0.023239297792315483
aF0.06573646515607834
aF-0.009959662333130836
aF0.06573646515607834
aF-0.03651886805891991
aF0.06573646515607834
aa(lp847
F0.03319896012544632
aF0.12801311910152435
aF-0.053118348121643066
aF0.1210934966802597
aF-0.009959662333130836
aF0.10725425183773041
aF-0.009959662333130836
aF0.14531221985816956
aF0.013279571197926998
aF0.10725425183773041
aF-0.029879052191972733
aF0.10725425183773041
aF-0.029879052191972733
aF0.13147297501564026
aF0.013279571197926998
aF0.13493278622627258
aaaa(lp848
aa(lp849
F0.020929720252752304
aF0.0017368246335536242
aF0.21049907803535461
aF0.0
aF-0.4791823625564575
aF0.0827939510345459
aa(lp850
F0.0762489065527916
aF-0.05295339226722717
aF0.37468719482421875
aF0.18322230875492096
aF-0.3230545222759247
aF0.0005825129919685423
aaI0
aaa(lp851
F1363684772.57
a(lp852
(lp853
I1363684777
aI382541
aa(lp854
(lp855
(lp856
I0
aF-0.023239297792315483
aF0.06919627636671066
aF0.2987906336784363
aF0.31138330698013306
aa(lp857
I-1
aF0.0
ag9
a(lp858
F0.01659948006272316
aF0.02421868033707142
aF0.01659948006272316
aF0.02421868033707142
aF0.04647853225469589
aF0.027678539976477623
aF0.029879052191972733
aF0.01729905605316162
aF0.029879052191972733
aF0.03459816426038742
aF0.039838746190071106
aF0.01729905605316162
aF0.026559174060821533
aF0.01729905605316162
aa(lp859
F-0.07303773611783981
aF0.027678539976477623
aF-0.059758104383945465
aF0.01729905605316162
aF-0.09295706450939178
aF0.01729905605316162
aF-0.07303773611783981
aF0.006919622886925936
aF-0.07303773611783981
aF0.027678539976477623
aF-0.06307800859212875
aF0.006919622886925936
aF-0.0829973965883255
aF0.006919622886925936
aa(lp860
F-0.003319908631965518
aF0.003459811443462968
aF0.026559174060821533
aF0.003459811443462968
aF0.5345032811164856
aF-0.41863757371902466
aa(lp861
F0.5375000238418579
aF0.4958333373069763
aF0.5687500238418579
aF0.4833333194255829
aF-0.0031250000465661287
aF-0.004166666883975267
aa(lp862
F-0.026559142395853996
aF0.10033462941646576
aF-0.003319908631965518
aF0.10033462941646576
aF-0.04979844018816948
aF0.10033462941646576
aa(lp863
F0.013279571197926998
aF0.16261129081249237
aF-0.06971783190965652
aF0.1522318422794342
aF-0.023239297792315483
aF0.14185240864753723
aF-0.023239297792315483
aF0.1833702027797699
aF-0.003319908631965518
aF0.14185240864753723
aF-0.043158624321222305
aF0.14185240864753723
aF-0.043158624321222305
aF0.16953091323375702
aF-0.003319908631965518
aF0.17299072444438934
aaaa(lp864
aa(lp865
F0.021058108657598495
aF0.0017474787309765816
aF0.21046675741672516
aF0.0
aF-0.47764837741851807
aF0.0827939510345459
aa(lp866
F0.07628190517425537
aF-0.05301874130964279
aF0.37465789914131165
aF0.18333947658538818
aF-0.32184022665023804
aF0.0005811835289932787
aaI0
aaa(lp867
F1363684772.929
a(lp868
(lp869
I1363684777
aI382541
aa(lp870
(lp871
(lp872
I0
aF-0.023239297792315483
aF0.06919627636671066
aF0.2987906336784363
aF0.31138330698013306
aa(lp873
I-1
aF0.0
ag9
a(lp874
F0.01659948006272316
aF0.02421868033707142
aF0.01659948006272316
aF0.02421868033707142
aF0.04647853225469589
aF0.027678539976477623
aF0.029879052191972733
aF0.01729905605316162
aF0.029879052191972733
aF0.03459816426038742
aF0.039838746190071106
aF0.01729905605316162
aF0.026559174060821533
aF0.01729905605316162
aa(lp875
F-0.07303773611783981
aF0.027678539976477623
aF-0.059758104383945465
aF0.01729905605316162
aF-0.09295706450939178
aF0.01729905605316162
aF-0.07303773611783981
aF0.006919622886925936
aF-0.07303773611783981
aF0.027678539976477623
aF-0.06307800859212875
aF0.006919622886925936
aF-0.0829973965883255
aF0.006919622886925936
aa(lp876
F-0.003319908631965518
aF0.003459811443462968
aF0.026559174060821533
aF0.003459811443462968
aF0.5345032811164856
aF-0.41863757371902466
aa(lp877
F0.5375000238418579
aF0.4958333373069763
aF0.5687500238418579
aF0.4833333194255829
aF-0.0031250000465661287
aF-0.004166666883975267
aa(lp878
F-0.026559142395853996
aF0.10033462941646576
aF-0.003319908631965518
aF0.10033462941646576
aF-0.04979844018816948
aF0.10033462941646576
aa(lp879
F0.013279571197926998
aF0.16261129081249237
aF-0.06971783190965652
aF0.1522318422794342
aF-0.023239297792315483
aF0.14185240864753723
aF-0.023239297792315483
aF0.1833702027797699
aF-0.003319908631965518
aF0.14185240864753723
aF-0.043158624321222305
aF0.14185240864753723
aF-0.043158624321222305
aF0.16953091323375702
aF-0.003319908631965518
aF0.17299072444438934
aaaa(lp880
aa(lp881
F0.021058108657598495
aF0.0017474787309765816
aF0.21046675741672516
aF0.0
aF-0.47764837741851807
aF0.0827939510345459
aa(lp882
F0.07628190517425537
aF-0.05301874130964279
aF0.37465789914131165
aF0.18333947658538818
aF-0.32184022665023804
aF0.0005811835289932787
aaI0
aaa(lp883
F1363684773.277
a(lp884
(lp885
I1363684777
aI916063
aa(lp886
(lp887
(lp888
I0
aF-0.013279571197926998
aF0.02421868033707142
aF0.27887123823165894
aF0.2906244397163391
aa(lp889
I-1
aF0.0
ag9
a(lp890
F0.026559174060821533
aF-0.010379434563219547
aF0.026559174060821533
aF-0.010379434563219547
aF0.056438226252794266
aF-0.006919622886925936
aF0.04315865412354469
aF-0.020758893340826035
aF0.04315865412354469
aF0.0
aF0.04979844018816948
aF-0.020758893340826035
aF0.03319896012544632
aF-0.020758893340826035
aa(lp891
F-0.059758104383945465
aF-0.010379434563219547
aF-0.039838775992393494
aF-0.006919622886925936
aF-0.07303773611783981
aF-0.020758893340826035
aF-0.05643825605511665
aF-0.027678515762090683
aF-0.05643825605511665
aF-0.006919622886925936
aF-0.04647853225469589
aF-0.02421870455145836
aF-0.06307800859212875
aF-0.027678515762090683
aa(lp892
F0.01659948006272316
aF-0.038057949393987656
aF0.029879052191972733
aF-0.038057949393987656
aF0.5345032811164856
aF-0.41863757371902466
aa(lp893
F0.528124988079071
aF0.4541666805744171
aF0.5562499761581421
aF0.4541666805744171
aF-0.0031250000465661287
aF-0.004166666883975267
aa(lp894
F-0.01659948006272316
aF0.055357031524181366
aF0.006639785598963499
aF0.055357031524181366
aF-0.03651886805891991
aF0.055357031524181366
aa(lp895
F0.026559174060821533
aF0.11763369292020798
aF-0.059758104383945465
aF0.11071406304836273
aF-0.013279571197926998
aF0.09687481820583344
aF-0.013279571197926998
aF0.12801311910152435
aF0.009959693998098373
aF0.09687481820583344
aF-0.03319896012544632
aF0.09687481820583344
aF-0.03319896012544632
aF0.11763369292020798
aF0.009959693998098373
aF0.1210934966802597
aaaa(lp896
aa(lp897
F0.021058108657598495
aF0.0017474787309765816
aF0.21046675741672516
aF0.0
aF-0.47764837741851807
aF0.0827939510345459
aa(lp898
F0.07637843489646912
aF-0.05292118340730667
aF0.37463563680648804
aF0.1831209659576416
aF-0.32153579592704773
aF0.0009373706416226923
aaI0
aaa(lp899
F1363684773.62
a(lp900
(lp901
I1363684778
aI382894
aa(lp902
(lp903
(lp904
I0
aF-0.0
aF-0.038057949393987656
aF0.27887123823165894
aF0.2906244397163391
aa(lp905
I-1
aF0.0
ag9
a(lp906
F0.04315865412354469
aF-0.05881684273481369
aF0.04315865412354469
aF-0.05881684273481369
aF0.07635761797428131
aF-0.05881684273481369
aF0.06307800859212875
aF-0.0761159211397171
aF0.06307800859212875
aF-0.062276653945446014
aF0.06971783190965652
aF-0.0761159211397171
aF0.053118348121643066
aF-0.07957573980093002
aa(lp907
F-0.039838775992393494
aF-0.08303555101156235
aF-0.01659948006272316
aF-0.08303555101156235
aF-0.04979844018816948
aF-0.08649536222219467
aF-0.03319896012544632
aF-0.09341500699520111
aF-0.03319896012544632
aF-0.08649536222219467
aF-0.026559142395853996
aF-0.09341500699520111
aF-0.039838775992393494
aF-0.09341500699520111
aa(lp908
F0.03319896012544632
aF-0.09687481820583344
aF0.04979844018816948
aF-0.09687481820583344
aF0.5345032811164856
aF-0.41863757371902466
aa(lp909
F0.5
aF0.375
aF0.534375011920929
aF0.36250001192092896
aF-0.0031250000465661287
aF-0.004166666883975267
aa(lp910
F0.009959693998098373
aF-0.013839269988238811
aF0.029879052191972733
aF-0.013839269988238811
aF-0.013279571197926998
aF-0.013839269988238811
aa(lp911
F0.04315865412354469
aF0.04497759789228439
aF-0.03319896012544632
aF0.031138351187109947
aF0.006639785598963499
aF0.020758869126439095
aF0.006639785598963499
aF0.055357031524181366
aF0.026559174060821533
aF0.020758869126439095
aF-0.013279571197926998
aF0.020758869126439095
aF-0.013279571197926998
aF0.04497759789228439
aF0.026559174060821533
aF0.04843740910291672
aaaa(lp912
aa(lp913
F0.021058108657598495
aF0.0017474787309765816
aF0.21046675741672516
aF0.0
aF-0.47764837741851807
aF0.0827939510345459
aa(lp914
F0.07621686160564423
aF-0.0532371886074543
aF0.3746753931045532
aF0.18420755863189697
aF-0.322052001953125
aF0.0006881103035993874
aaI0
aaa(lp915
F1363684773.973
a(lp916
(lp917
I1363684778
aI916421
aa(lp918
(lp919
(lp920
I0
aF0.006639785598963499
aF-0.07957573980093002
aF0.25895190238952637
aF0.2698655426502228
aa(lp921
I-1
aF0.0
ag9
a(lp922
F0.04647853225469589
aF-0.10033462941646576
aF0.04647853225469589
aF-0.10033462941646576
aF0.07303770631551743
aF-0.11071406304836273
aF0.05975813418626785
aF-0.1210935190320015
aF0.05975813418626785
aF-0.10379444062709808
aF0.06971783190965652
aF-0.1210935190320015
aF0.053118348121643066
aF-0.1210935190320015
aa(lp923
F-0.03319896012544632
aF-0.1210935190320015
aF-0.009959662333130836
aF-0.11763370782136917
aF-0.043158624321222305
aF-0.13147296011447906
aF-0.026559142395853996
aF-0.1349327713251114
aF-0.026559142395853996
aF-0.11763370782136917
aF-0.01659948006272316
aF-0.1349327713251114
aF-0.03319896012544632
aF-0.1349327713251114
aa(lp924
F0.03651886805891991
aF-0.1383925825357437
aF0.04979844018816948
aF-0.1383925825357437
aF0.5345032811164856
aF-0.41863757371902466
aa(lp925
F0.4937500059604645
aF0.32499998807907104
aF0.528124988079071
aF0.3125
aF-0.0031250000465661287
aF-0.004166666883975267
aa(lp926
F0.013279571197926998
aF-0.062276653945446014
aF0.029879052191972733
aF-0.062276653945446014
aF-0.006639817263931036
aF-0.062276653945446014
aa(lp927
F0.04315865412354469
aF-0.006919622886925936
aF-0.029879052191972733
aF-0.013839269988238811
aF0.009959693998098373
aF-0.027678515762090683
aF0.009959693998098373
aF0.003459811443462968
aF0.029879052191972733
aF-0.027678515762090683
aF-0.009959662333130836
aF-0.027678515762090683
aF-0.009959662333130836
aF-0.006919622886925936
aF0.029879052191972733
aF-0.003459811443462968
aaaa(lp928
aa(lp929
F0.020929720252752304
aF0.0017368246335536242
aF0.21049907803535461
aF0.0
aF-0.4791823625564575
aF0.0827939510345459
aa(lp930
F0.0761328861117363
aF-0.053183283656835556
aF0.3747154772281647
aF0.18400625884532928
aF-0.3234214186668396
aF0.0003982211055699736
aaI0
aaa(lp931
F1363684774.336
a(lp932
(lp933
I1363684778
aI916421
aa(lp934
(lp935
(lp936
I0
aF0.006639785598963499
aF-0.07957573980093002
aF0.25895190238952637
aF0.2698655426502228
aa(lp937
I-1
aF0.0
ag9
a(lp938
F0.04647853225469589
aF-0.10033462941646576
aF0.04647853225469589
aF-0.10033462941646576
aF0.07303770631551743
aF-0.11071406304836273
aF0.05975813418626785
aF-0.1210935190320015
aF0.05975813418626785
aF-0.10379444062709808
aF0.06971783190965652
aF-0.1210935190320015
aF0.053118348121643066
aF-0.1210935190320015
aa(lp939
F-0.03319896012544632
aF-0.1210935190320015
aF-0.009959662333130836
aF-0.11763370782136917
aF-0.043158624321222305
aF-0.13147296011447906
aF-0.026559142395853996
aF-0.1349327713251114
aF-0.026559142395853996
aF-0.11763370782136917
aF-0.01659948006272316
aF-0.1349327713251114
aF-0.03319896012544632
aF-0.1349327713251114
aa(lp940
F0.03651886805891991
aF-0.1383925825357437
aF0.04979844018816948
aF-0.1383925825357437
aF0.5345032811164856
aF-0.41863757371902466
aa(lp941
F0.4937500059604645
aF0.32499998807907104
aF0.528124988079071
aF0.3125
aF-0.0031250000465661287
aF-0.004166666883975267
aa(lp942
F0.013279571197926998
aF-0.062276653945446014
aF0.029879052191972733
aF-0.062276653945446014
aF-0.006639817263931036
aF-0.062276653945446014
aa(lp943
F0.04315865412354469
aF-0.006919622886925936
aF-0.029879052191972733
aF-0.013839269988238811
aF0.009959693998098373
aF-0.027678515762090683
aF0.009959693998098373
aF0.003459811443462968
aF0.029879052191972733
aF-0.027678515762090683
aF-0.009959662333130836
aF-0.027678515762090683
aF-0.009959662333130836
aF-0.006919622886925936
aF0.029879052191972733
aF-0.003459811443462968
aaaa(lp944
aa(lp945
F0.020929720252752304
aF0.0017368246335536242
aF0.21049907803535461
aF0.0
aF-0.4791823625564575
aF0.0827939510345459
aa(lp946
F0.0761328861117363
aF-0.053183283656835556
aF0.3747154772281647
aF0.18400625884532928
aF-0.3234214186668396
aF0.0003982211055699736
aaI0
aaaa.